(dp0
Vissues_url
p1
Vhttps://api.github.com/repos/kevwil/mcp/issues{/number}
p2
sVstargazers_count
p3
I0
sVforks_url
p4
Vhttps://api.github.com/repos/kevwil/mcp/forks
p5
sVmirror_url
p6
NsVsubscription_url
p7
Vhttps://api.github.com/repos/kevwil/mcp/subscription
p8
sVnotifications_url
p9
Vhttps://api.github.com/repos/kevwil/mcp/notifications{?since,all,participating}
p10
sVcollaborators_url
p11
Vhttps://api.github.com/repos/kevwil/mcp/collaborators{/collaborator}
p12
sVupdated_at
p13
V2014-01-01T22:19:21Z
p14
sVprivate
p15
I00
sVpulls_url
p16
Vhttps://api.github.com/repos/kevwil/mcp/pulls{/number}
p17
sVissue_comment_url
p18
Vhttps://api.github.com/repos/kevwil/mcp/issues/comments/{number}
p19
sVlabels_url
p20
Vhttps://api.github.com/repos/kevwil/mcp/labels{/name}
p21
sVhas_wiki
p22
I01
sVfull_name
p23
Vkevwil/mcp
p24
sVowner
p25
(dp26
Vfollowing_url
p27
Vhttps://api.github.com/users/kevwil/following{/other_user}
p28
sVevents_url
p29
Vhttps://api.github.com/users/kevwil/events{/privacy}
p30
sVorganizations_url
p31
Vhttps://api.github.com/users/kevwil/orgs
p32
sVurl
p33
Vhttps://api.github.com/users/kevwil
p34
sVgists_url
p35
Vhttps://api.github.com/users/kevwil/gists{/gist_id}
p36
sVhtml_url
p37
Vhttps://github.com/kevwil
p38
sVsubscriptions_url
p39
Vhttps://api.github.com/users/kevwil/subscriptions
p40
sVavatar_url
p41
Vhttps://avatars.githubusercontent.com/u/35?
p42
sVrepos_url
p43
Vhttps://api.github.com/users/kevwil/repos
p44
sVreceived_events_url
p45
Vhttps://api.github.com/users/kevwil/received_events
p46
sVgravatar_id
p47
V267942571862781dd912de6482a35f46
p48
sVstarred_url
p49
Vhttps://api.github.com/users/kevwil/starred{/owner}{/repo}
p50
sVsite_admin
p51
I00
sVlogin
p52
Vkevwil
p53
sVtype
p54
VUser
p55
sVid
p56
I35
sVfollowers_url
p57
Vhttps://api.github.com/users/kevwil/followers
p58
ssVstatuses_url
p59
Vhttps://api.github.com/repos/kevwil/mcp/statuses/{sha}
p60
sVid
p61
I9679831
sVkeys_url
p62
Vhttps://api.github.com/repos/kevwil/mcp/keys{/key_id}
p63
sVdescription
p64
VMaster Control Program - an extensible collection of programs with a Git-like command pass-through
p65
sVsubscribers_count
p66
I0
sVtags_url
p67
Vhttps://api.github.com/repos/kevwil/mcp/tags
p68
sVnetwork_count
p69
I0
sVdownloads_url
p70
Vhttps://api.github.com/repos/kevwil/mcp/downloads
p71
sVassignees_url
p72
Vhttps://api.github.com/repos/kevwil/mcp/assignees{/user}
p73
sVcontents_url
p74
Vhttps://api.github.com/repos/kevwil/mcp/contents/{+path}
p75
sVgit_refs_url
p76
Vhttps://api.github.com/repos/kevwil/mcp/git/refs{/sha}
p77
sVopen_issues_count
p78
I0
sVclone_url
p79
Vhttps://github.com/kevwil/mcp.git
p80
sVwatchers_count
p81
I0
sVgit_tags_url
p82
Vhttps://api.github.com/repos/kevwil/mcp/git/tags{/sha}
p83
sVmilestones_url
p84
Vhttps://api.github.com/repos/kevwil/mcp/milestones{/number}
p85
sVlanguages_url
p86
Vhttps://api.github.com/repos/kevwil/mcp/languages
p87
sVsize
p88
I104
sVhomepage
p89
NsVfork
p90
I00
sVcommits_url
p91
Vhttps://api.github.com/repos/kevwil/mcp/commits{/sha}
p92
sVreleases_url
p93
Vhttps://api.github.com/repos/kevwil/mcp/releases{/id}
p94
sVissue_events_url
p95
Vhttps://api.github.com/repos/kevwil/mcp/issues/events{/number}
p96
sVarchive_url
p97
Vhttps://api.github.com/repos/kevwil/mcp/{archive_format}{/ref}
p98
sVcomments_url
p99
Vhttps://api.github.com/repos/kevwil/mcp/comments{/number}
p100
sVevents_url
p101
Vhttps://api.github.com/repos/kevwil/mcp/events
p102
sVcontributors_url
p103
Vhttps://api.github.com/repos/kevwil/mcp/contributors
p104
sVhtml_url
p105
Vhttps://github.com/kevwil/mcp
p106
sVforks
p107
I0
sVcompare_url
p108
Vhttps://api.github.com/repos/kevwil/mcp/compare/{base}...{head}
p109
sVopen_issues
p110
I0
sVgit_url
p111
Vgit://github.com/kevwil/mcp.git
p112
sVsvn_url
p113
Vhttps://github.com/kevwil/mcp
p114
sVmerges_url
p115
Vhttps://api.github.com/repos/kevwil/mcp/merges
p116
sVhas_issues
p117
I01
sVssh_url
p118
Vgit@github.com:kevwil/mcp.git
p119
sVblobs_url
p120
Vhttps://api.github.com/repos/kevwil/mcp/git/blobs{/sha}
p121
sVmaster_branch
p122
Vmaster
p123
sVgit_commits_url
p124
Vhttps://api.github.com/repos/kevwil/mcp/git/commits{/sha}
p125
sVhooks_url
p126
Vhttps://api.github.com/repos/kevwil/mcp/hooks
p127
sVhas_downloads
p128
I01
sVwatchers
p129
I0
sVname
p130
Vmcp
p131
sVlanguage
p132
NsVurl
p133
Vhttps://api.github.com/repos/kevwil/mcp
p134
sVcreated_at
p135
V2013-04-25T19:41:55Z
p136
sVpushed_at
p137
V2013-04-25T19:42:19Z
p138
sVforks_count
p139
I0
sVdefault_branch
p140
Vmaster
p141
sVteams_url
p142
Vhttps://api.github.com/repos/kevwil/mcp/teams
p143
sVtrees_url
p144
Vhttps://api.github.com/repos/kevwil/mcp/git/trees{/sha}
p145
sVbranches_url
p146
Vhttps://api.github.com/repos/kevwil/mcp/branches{/branch}
p147
sVsubscribers_url
p148
Vhttps://api.github.com/repos/kevwil/mcp/subscribers
p149
sVstargazers_url
p150
Vhttps://api.github.com/repos/kevwil/mcp/stargazers
p151
s.