(dp0
Vissues_url
p1
Vhttps://api.github.com/repos/kevwil/racer/issues{/number}
p2
sVstargazers_count
p3
I0
sVforks_url
p4
Vhttps://api.github.com/repos/kevwil/racer/forks
p5
sVmirror_url
p6
NsVsubscription_url
p7
Vhttps://api.github.com/repos/kevwil/racer/subscription
p8
sVnotifications_url
p9
Vhttps://api.github.com/repos/kevwil/racer/notifications{?since,all,participating}
p10
sVcollaborators_url
p11
Vhttps://api.github.com/repos/kevwil/racer/collaborators{/collaborator}
p12
sVupdated_at
p13
V2013-01-11T15:59:54Z
p14
sVprivate
p15
I00
sVpulls_url
p16
Vhttps://api.github.com/repos/kevwil/racer/pulls{/number}
p17
sVissue_comment_url
p18
Vhttps://api.github.com/repos/kevwil/racer/issues/comments/{number}
p19
sVlabels_url
p20
Vhttps://api.github.com/repos/kevwil/racer/labels{/name}
p21
sVhas_wiki
p22
I01
sVfull_name
p23
Vkevwil/racer
p24
sVowner
p25
(dp26
Vfollowing_url
p27
Vhttps://api.github.com/users/kevwil/following{/other_user}
p28
sVevents_url
p29
Vhttps://api.github.com/users/kevwil/events{/privacy}
p30
sVorganizations_url
p31
Vhttps://api.github.com/users/kevwil/orgs
p32
sVurl
p33
Vhttps://api.github.com/users/kevwil
p34
sVgists_url
p35
Vhttps://api.github.com/users/kevwil/gists{/gist_id}
p36
sVhtml_url
p37
Vhttps://github.com/kevwil
p38
sVsubscriptions_url
p39
Vhttps://api.github.com/users/kevwil/subscriptions
p40
sVavatar_url
p41
Vhttps://avatars.githubusercontent.com/u/35?
p42
sVrepos_url
p43
Vhttps://api.github.com/users/kevwil/repos
p44
sVreceived_events_url
p45
Vhttps://api.github.com/users/kevwil/received_events
p46
sVgravatar_id
p47
V267942571862781dd912de6482a35f46
p48
sVstarred_url
p49
Vhttps://api.github.com/users/kevwil/starred{/owner}{/repo}
p50
sVsite_admin
p51
I00
sVlogin
p52
Vkevwil
p53
sVtype
p54
VUser
p55
sVid
p56
I35
sVfollowers_url
p57
Vhttps://api.github.com/users/kevwil/followers
p58
ssVstatuses_url
p59
Vhttps://api.github.com/repos/kevwil/racer/statuses/{sha}
p60
sVid
p61
I5343213
sVkeys_url
p62
Vhttps://api.github.com/repos/kevwil/racer/keys{/key_id}
p63
sVdescription
p64
VA high performance Ruby web server
p65
sVsubscribers_count
p66
I1
sVtags_url
p67
Vhttps://api.github.com/repos/kevwil/racer/tags
p68
sVnetwork_count
p69
I8
sVdownloads_url
p70
Vhttps://api.github.com/repos/kevwil/racer/downloads
p71
sVassignees_url
p72
Vhttps://api.github.com/repos/kevwil/racer/assignees{/user}
p73
sVcontents_url
p74
Vhttps://api.github.com/repos/kevwil/racer/contents/{+path}
p75
sVgit_refs_url
p76
Vhttps://api.github.com/repos/kevwil/racer/git/refs{/sha}
p77
sVopen_issues_count
p78
I0
sVsource
p79
(dp80
Vissues_url
p81
Vhttps://api.github.com/repos/charliesome/racer/issues{/number}
p82
sVstargazers_count
p83
I280
sVforks_url
p84
Vhttps://api.github.com/repos/charliesome/racer/forks
p85
sVmirror_url
p86
NsVsubscription_url
p87
Vhttps://api.github.com/repos/charliesome/racer/subscription
p88
sVnotifications_url
p89
Vhttps://api.github.com/repos/charliesome/racer/notifications{?since,all,participating}
p90
sVcollaborators_url
p91
Vhttps://api.github.com/repos/charliesome/racer/collaborators{/collaborator}
p92
sVupdated_at
p93
V2014-01-14T01:46:31Z
p94
sVprivate
p95
I00
sVpulls_url
p96
Vhttps://api.github.com/repos/charliesome/racer/pulls{/number}
p97
sVissue_comment_url
p98
Vhttps://api.github.com/repos/charliesome/racer/issues/comments/{number}
p99
sVlabels_url
p100
Vhttps://api.github.com/repos/charliesome/racer/labels{/name}
p101
sVhas_wiki
p102
I01
sVfull_name
p103
Vcharliesome/racer
p104
sVowner
p105
(dp106
Vfollowing_url
p107
Vhttps://api.github.com/users/charliesome/following{/other_user}
p108
sVevents_url
p109
Vhttps://api.github.com/users/charliesome/events{/privacy}
p110
sVorganizations_url
p111
Vhttps://api.github.com/users/charliesome/orgs
p112
sVurl
p113
Vhttps://api.github.com/users/charliesome
p114
sVgists_url
p115
Vhttps://api.github.com/users/charliesome/gists{/gist_id}
p116
sVhtml_url
p117
Vhttps://github.com/charliesome
p118
sVsubscriptions_url
p119
Vhttps://api.github.com/users/charliesome/subscriptions
p120
sVavatar_url
p121
Vhttps://avatars.githubusercontent.com/u/179065?
p122
sVrepos_url
p123
Vhttps://api.github.com/users/charliesome/repos
p124
sVreceived_events_url
p125
Vhttps://api.github.com/users/charliesome/received_events
p126
sVgravatar_id
p127
Vbcb6acc9d0d9bef99e033b36c3d32ca9
p128
sVstarred_url
p129
Vhttps://api.github.com/users/charliesome/starred{/owner}{/repo}
p130
sVsite_admin
p131
I01
sVlogin
p132
Vcharliesome
p133
sVtype
p134
VUser
p135
sVid
p136
I179065
sVfollowers_url
p137
Vhttps://api.github.com/users/charliesome/followers
p138
ssVstatuses_url
p139
Vhttps://api.github.com/repos/charliesome/racer/statuses/{sha}
p140
sVid
p141
I4908358
sVkeys_url
p142
Vhttps://api.github.com/repos/charliesome/racer/keys{/key_id}
p143
sVdescription
p144
VA high performance Ruby web server
p145
sVtags_url
p146
Vhttps://api.github.com/repos/charliesome/racer/tags
p147
sVdownloads_url
p148
Vhttps://api.github.com/repos/charliesome/racer/downloads
p149
sVassignees_url
p150
Vhttps://api.github.com/repos/charliesome/racer/assignees{/user}
p151
sVcontents_url
p152
Vhttps://api.github.com/repos/charliesome/racer/contents/{+path}
p153
sVgit_refs_url
p154
Vhttps://api.github.com/repos/charliesome/racer/git/refs{/sha}
p155
sVopen_issues_count
p156
I4
sVclone_url
p157
Vhttps://github.com/charliesome/racer.git
p158
sVwatchers_count
p159
I280
sVgit_tags_url
p160
Vhttps://api.github.com/repos/charliesome/racer/git/tags{/sha}
p161
sVmilestones_url
p162
Vhttps://api.github.com/repos/charliesome/racer/milestones{/number}
p163
sVlanguages_url
p164
Vhttps://api.github.com/repos/charliesome/racer/languages
p165
sVsize
p166
I227
sVhomepage
p167
V
p168
sVfork
p169
I00
sVcommits_url
p170
Vhttps://api.github.com/repos/charliesome/racer/commits{/sha}
p171
sVreleases_url
p172
Vhttps://api.github.com/repos/charliesome/racer/releases{/id}
p173
sVissue_events_url
p174
Vhttps://api.github.com/repos/charliesome/racer/issues/events{/number}
p175
sVarchive_url
p176
Vhttps://api.github.com/repos/charliesome/racer/{archive_format}{/ref}
p177
sVcomments_url
p178
Vhttps://api.github.com/repos/charliesome/racer/comments{/number}
p179
sVevents_url
p180
Vhttps://api.github.com/repos/charliesome/racer/events
p181
sVcontributors_url
p182
Vhttps://api.github.com/repos/charliesome/racer/contributors
p183
sVhtml_url
p184
Vhttps://github.com/charliesome/racer
p185
sVforks
p186
I8
sVcompare_url
p187
Vhttps://api.github.com/repos/charliesome/racer/compare/{base}...{head}
p188
sVopen_issues
p189
I4
sVgit_url
p190
Vgit://github.com/charliesome/racer.git
p191
sVsvn_url
p192
Vhttps://github.com/charliesome/racer
p193
sVmerges_url
p194
Vhttps://api.github.com/repos/charliesome/racer/merges
p195
sVhas_issues
p196
I01
sVssh_url
p197
Vgit@github.com:charliesome/racer.git
p198
sVblobs_url
p199
Vhttps://api.github.com/repos/charliesome/racer/git/blobs{/sha}
p200
sVmaster_branch
p201
Vmaster
p202
sVgit_commits_url
p203
Vhttps://api.github.com/repos/charliesome/racer/git/commits{/sha}
p204
sVhooks_url
p205
Vhttps://api.github.com/repos/charliesome/racer/hooks
p206
sVhas_downloads
p207
I01
sVwatchers
p208
I280
sVname
p209
Vracer
p210
sVlanguage
p211
VC
p212
sVurl
p213
Vhttps://api.github.com/repos/charliesome/racer
p214
sVcreated_at
p215
V2012-07-05T14:40:46Z
p216
sVpushed_at
p217
V2012-08-07T05:07:17Z
p218
sVforks_count
p219
I8
sVdefault_branch
p220
Vmaster
p221
sVteams_url
p222
Vhttps://api.github.com/repos/charliesome/racer/teams
p223
sVtrees_url
p224
Vhttps://api.github.com/repos/charliesome/racer/git/trees{/sha}
p225
sVbranches_url
p226
Vhttps://api.github.com/repos/charliesome/racer/branches{/branch}
p227
sVsubscribers_url
p228
Vhttps://api.github.com/repos/charliesome/racer/subscribers
p229
sVstargazers_url
p230
Vhttps://api.github.com/repos/charliesome/racer/stargazers
p231
ssVclone_url
p232
Vhttps://github.com/kevwil/racer.git
p233
sVwatchers_count
p234
I0
sVgit_tags_url
p235
Vhttps://api.github.com/repos/kevwil/racer/git/tags{/sha}
p236
sVmilestones_url
p237
Vhttps://api.github.com/repos/kevwil/racer/milestones{/number}
p238
sVlanguages_url
p239
Vhttps://api.github.com/repos/kevwil/racer/languages
p240
sVsize
p241
I111
sVhomepage
p242
g168
sVfork
p243
I01
sVcommits_url
p244
Vhttps://api.github.com/repos/kevwil/racer/commits{/sha}
p245
sVreleases_url
p246
Vhttps://api.github.com/repos/kevwil/racer/releases{/id}
p247
sVissue_events_url
p248
Vhttps://api.github.com/repos/kevwil/racer/issues/events{/number}
p249
sVparent
p250
(dp251
Vissues_url
p252
Vhttps://api.github.com/repos/charliesome/racer/issues{/number}
p253
sVstargazers_count
p254
I280
sVforks_url
p255
Vhttps://api.github.com/repos/charliesome/racer/forks
p256
sVmirror_url
p257
NsVsubscription_url
p258
Vhttps://api.github.com/repos/charliesome/racer/subscription
p259
sVnotifications_url
p260
Vhttps://api.github.com/repos/charliesome/racer/notifications{?since,all,participating}
p261
sVcollaborators_url
p262
Vhttps://api.github.com/repos/charliesome/racer/collaborators{/collaborator}
p263
sVupdated_at
p264
V2014-01-14T01:46:31Z
p265
sVprivate
p266
I00
sVpulls_url
p267
Vhttps://api.github.com/repos/charliesome/racer/pulls{/number}
p268
sVissue_comment_url
p269
Vhttps://api.github.com/repos/charliesome/racer/issues/comments/{number}
p270
sVlabels_url
p271
Vhttps://api.github.com/repos/charliesome/racer/labels{/name}
p272
sVhas_wiki
p273
I01
sVfull_name
p274
Vcharliesome/racer
p275
sVowner
p276
(dp277
Vfollowing_url
p278
Vhttps://api.github.com/users/charliesome/following{/other_user}
p279
sVevents_url
p280
Vhttps://api.github.com/users/charliesome/events{/privacy}
p281
sVorganizations_url
p282
Vhttps://api.github.com/users/charliesome/orgs
p283
sVurl
p284
Vhttps://api.github.com/users/charliesome
p285
sVgists_url
p286
Vhttps://api.github.com/users/charliesome/gists{/gist_id}
p287
sVhtml_url
p288
Vhttps://github.com/charliesome
p289
sVsubscriptions_url
p290
Vhttps://api.github.com/users/charliesome/subscriptions
p291
sVavatar_url
p292
Vhttps://avatars.githubusercontent.com/u/179065?
p293
sVrepos_url
p294
Vhttps://api.github.com/users/charliesome/repos
p295
sVreceived_events_url
p296
Vhttps://api.github.com/users/charliesome/received_events
p297
sVgravatar_id
p298
Vbcb6acc9d0d9bef99e033b36c3d32ca9
p299
sVstarred_url
p300
Vhttps://api.github.com/users/charliesome/starred{/owner}{/repo}
p301
sVsite_admin
p302
I01
sVlogin
p303
Vcharliesome
p304
sVtype
p305
VUser
p306
sVid
p307
I179065
sVfollowers_url
p308
Vhttps://api.github.com/users/charliesome/followers
p309
ssVstatuses_url
p310
Vhttps://api.github.com/repos/charliesome/racer/statuses/{sha}
p311
sVid
p312
I4908358
sVkeys_url
p313
Vhttps://api.github.com/repos/charliesome/racer/keys{/key_id}
p314
sVdescription
p315
VA high performance Ruby web server
p316
sVtags_url
p317
Vhttps://api.github.com/repos/charliesome/racer/tags
p318
sVdownloads_url
p319
Vhttps://api.github.com/repos/charliesome/racer/downloads
p320
sVassignees_url
p321
Vhttps://api.github.com/repos/charliesome/racer/assignees{/user}
p322
sVcontents_url
p323
Vhttps://api.github.com/repos/charliesome/racer/contents/{+path}
p324
sVgit_refs_url
p325
Vhttps://api.github.com/repos/charliesome/racer/git/refs{/sha}
p326
sVopen_issues_count
p327
I4
sVclone_url
p328
Vhttps://github.com/charliesome/racer.git
p329
sVwatchers_count
p330
I280
sVgit_tags_url
p331
Vhttps://api.github.com/repos/charliesome/racer/git/tags{/sha}
p332
sVmilestones_url
p333
Vhttps://api.github.com/repos/charliesome/racer/milestones{/number}
p334
sVlanguages_url
p335
Vhttps://api.github.com/repos/charliesome/racer/languages
p336
sVsize
p337
I227
sVhomepage
p338
g168
sVfork
p339
I00
sVcommits_url
p340
Vhttps://api.github.com/repos/charliesome/racer/commits{/sha}
p341
sVreleases_url
p342
Vhttps://api.github.com/repos/charliesome/racer/releases{/id}
p343
sVissue_events_url
p344
Vhttps://api.github.com/repos/charliesome/racer/issues/events{/number}
p345
sVarchive_url
p346
Vhttps://api.github.com/repos/charliesome/racer/{archive_format}{/ref}
p347
sVcomments_url
p348
Vhttps://api.github.com/repos/charliesome/racer/comments{/number}
p349
sVevents_url
p350
Vhttps://api.github.com/repos/charliesome/racer/events
p351
sVcontributors_url
p352
Vhttps://api.github.com/repos/charliesome/racer/contributors
p353
sVhtml_url
p354
Vhttps://github.com/charliesome/racer
p355
sVforks
p356
I8
sVcompare_url
p357
Vhttps://api.github.com/repos/charliesome/racer/compare/{base}...{head}
p358
sVopen_issues
p359
I4
sVgit_url
p360
Vgit://github.com/charliesome/racer.git
p361
sVsvn_url
p362
Vhttps://github.com/charliesome/racer
p363
sVmerges_url
p364
Vhttps://api.github.com/repos/charliesome/racer/merges
p365
sVhas_issues
p366
I01
sVssh_url
p367
Vgit@github.com:charliesome/racer.git
p368
sVblobs_url
p369
Vhttps://api.github.com/repos/charliesome/racer/git/blobs{/sha}
p370
sVmaster_branch
p371
Vmaster
p372
sVgit_commits_url
p373
Vhttps://api.github.com/repos/charliesome/racer/git/commits{/sha}
p374
sVhooks_url
p375
Vhttps://api.github.com/repos/charliesome/racer/hooks
p376
sVhas_downloads
p377
I01
sVwatchers
p378
I280
sVname
p379
Vracer
p380
sVlanguage
p381
g212
sVurl
p382
Vhttps://api.github.com/repos/charliesome/racer
p383
sVcreated_at
p384
V2012-07-05T14:40:46Z
p385
sVpushed_at
p386
V2012-08-07T05:07:17Z
p387
sVforks_count
p388
I8
sVdefault_branch
p389
Vmaster
p390
sVteams_url
p391
Vhttps://api.github.com/repos/charliesome/racer/teams
p392
sVtrees_url
p393
Vhttps://api.github.com/repos/charliesome/racer/git/trees{/sha}
p394
sVbranches_url
p395
Vhttps://api.github.com/repos/charliesome/racer/branches{/branch}
p396
sVsubscribers_url
p397
Vhttps://api.github.com/repos/charliesome/racer/subscribers
p398
sVstargazers_url
p399
Vhttps://api.github.com/repos/charliesome/racer/stargazers
p400
ssVarchive_url
p401
Vhttps://api.github.com/repos/kevwil/racer/{archive_format}{/ref}
p402
sVcomments_url
p403
Vhttps://api.github.com/repos/kevwil/racer/comments{/number}
p404
sVevents_url
p405
Vhttps://api.github.com/repos/kevwil/racer/events
p406
sVcontributors_url
p407
Vhttps://api.github.com/repos/kevwil/racer/contributors
p408
sVhtml_url
p409
Vhttps://github.com/kevwil/racer
p410
sVforks
p411
I0
sVcompare_url
p412
Vhttps://api.github.com/repos/kevwil/racer/compare/{base}...{head}
p413
sVopen_issues
p414
I0
sVgit_url
p415
Vgit://github.com/kevwil/racer.git
p416
sVsvn_url
p417
Vhttps://github.com/kevwil/racer
p418
sVmerges_url
p419
Vhttps://api.github.com/repos/kevwil/racer/merges
p420
sVhas_issues
p421
I00
sVssh_url
p422
Vgit@github.com:kevwil/racer.git
p423
sVblobs_url
p424
Vhttps://api.github.com/repos/kevwil/racer/git/blobs{/sha}
p425
sVmaster_branch
p426
Vmaster
p427
sVgit_commits_url
p428
Vhttps://api.github.com/repos/kevwil/racer/git/commits{/sha}
p429
sVhooks_url
p430
Vhttps://api.github.com/repos/kevwil/racer/hooks
p431
sVhas_downloads
p432
I01
sVwatchers
p433
I0
sVname
p434
Vracer
p435
sVlanguage
p436
g212
sVurl
p437
Vhttps://api.github.com/repos/kevwil/racer
p438
sVcreated_at
p439
V2012-08-08T14:52:29Z
p440
sVpushed_at
p441
V2012-08-07T05:07:17Z
p442
sVforks_count
p443
I0
sVdefault_branch
p444
Vmaster
p445
sVteams_url
p446
Vhttps://api.github.com/repos/kevwil/racer/teams
p447
sVtrees_url
p448
Vhttps://api.github.com/repos/kevwil/racer/git/trees{/sha}
p449
sVbranches_url
p450
Vhttps://api.github.com/repos/kevwil/racer/branches{/branch}
p451
sVsubscribers_url
p452
Vhttps://api.github.com/repos/kevwil/racer/subscribers
p453
sVstargazers_url
p454
Vhttps://api.github.com/repos/kevwil/racer/stargazers
p455
s.