(dp0
Vissues_url
p1
Vhttps://api.github.com/repos/kevwil/sm-npm/issues{/number}
p2
sVstargazers_count
p3
I1
sVforks_url
p4
Vhttps://api.github.com/repos/kevwil/sm-npm/forks
p5
sVmirror_url
p6
NsVsubscription_url
p7
Vhttps://api.github.com/repos/kevwil/sm-npm/subscription
p8
sVnotifications_url
p9
Vhttps://api.github.com/repos/kevwil/sm-npm/notifications{?since,all,participating}
p10
sVcollaborators_url
p11
Vhttps://api.github.com/repos/kevwil/sm-npm/collaborators{/collaborator}
p12
sVupdated_at
p13
V2013-01-10T21:05:30Z
p14
sVprivate
p15
I00
sVpulls_url
p16
Vhttps://api.github.com/repos/kevwil/sm-npm/pulls{/number}
p17
sVissue_comment_url
p18
Vhttps://api.github.com/repos/kevwil/sm-npm/issues/comments/{number}
p19
sVlabels_url
p20
Vhttps://api.github.com/repos/kevwil/sm-npm/labels{/name}
p21
sVhas_wiki
p22
I01
sVfull_name
p23
Vkevwil/sm-npm
p24
sVowner
p25
(dp26
Vfollowing_url
p27
Vhttps://api.github.com/users/kevwil/following{/other_user}
p28
sVevents_url
p29
Vhttps://api.github.com/users/kevwil/events{/privacy}
p30
sVorganizations_url
p31
Vhttps://api.github.com/users/kevwil/orgs
p32
sVurl
p33
Vhttps://api.github.com/users/kevwil
p34
sVgists_url
p35
Vhttps://api.github.com/users/kevwil/gists{/gist_id}
p36
sVhtml_url
p37
Vhttps://github.com/kevwil
p38
sVsubscriptions_url
p39
Vhttps://api.github.com/users/kevwil/subscriptions
p40
sVavatar_url
p41
Vhttps://avatars.githubusercontent.com/u/35?
p42
sVrepos_url
p43
Vhttps://api.github.com/users/kevwil/repos
p44
sVreceived_events_url
p45
Vhttps://api.github.com/users/kevwil/received_events
p46
sVgravatar_id
p47
V267942571862781dd912de6482a35f46
p48
sVstarred_url
p49
Vhttps://api.github.com/users/kevwil/starred{/owner}{/repo}
p50
sVsite_admin
p51
I00
sVlogin
p52
Vkevwil
p53
sVtype
p54
VUser
p55
sVid
p56
I35
sVfollowers_url
p57
Vhttps://api.github.com/users/kevwil/followers
p58
ssVstatuses_url
p59
Vhttps://api.github.com/repos/kevwil/sm-npm/statuses/{sha}
p60
sVid
p61
I4822162
sVkeys_url
p62
Vhttps://api.github.com/repos/kevwil/sm-npm/keys{/key_id}
p63
sVdescription
p64
V
p65
sVsubscribers_count
p66
I1
sVtags_url
p67
Vhttps://api.github.com/repos/kevwil/sm-npm/tags
p68
sVnetwork_count
p69
I4
sVdownloads_url
p70
Vhttps://api.github.com/repos/kevwil/sm-npm/downloads
p71
sVassignees_url
p72
Vhttps://api.github.com/repos/kevwil/sm-npm/assignees{/user}
p73
sVcontents_url
p74
Vhttps://api.github.com/repos/kevwil/sm-npm/contents/{+path}
p75
sVgit_refs_url
p76
Vhttps://api.github.com/repos/kevwil/sm-npm/git/refs{/sha}
p77
sVopen_issues_count
p78
I0
sVsource
p79
(dp80
Vissues_url
p81
Vhttps://api.github.com/repos/sourcemint/sm-npm/issues{/number}
p82
sVstargazers_count
p83
I28
sVforks_url
p84
Vhttps://api.github.com/repos/sourcemint/sm-npm/forks
p85
sVmirror_url
p86
NsVsubscription_url
p87
Vhttps://api.github.com/repos/sourcemint/sm-npm/subscription
p88
sVnotifications_url
p89
Vhttps://api.github.com/repos/sourcemint/sm-npm/notifications{?since,all,participating}
p90
sVcollaborators_url
p91
Vhttps://api.github.com/repos/sourcemint/sm-npm/collaborators{/collaborator}
p92
sVupdated_at
p93
V2013-11-16T14:53:53Z
p94
sVprivate
p95
I00
sVpulls_url
p96
Vhttps://api.github.com/repos/sourcemint/sm-npm/pulls{/number}
p97
sVissue_comment_url
p98
Vhttps://api.github.com/repos/sourcemint/sm-npm/issues/comments/{number}
p99
sVlabels_url
p100
Vhttps://api.github.com/repos/sourcemint/sm-npm/labels{/name}
p101
sVhas_wiki
p102
I01
sVfull_name
p103
Vsourcemint/sm-npm
p104
sVowner
p105
(dp106
Vfollowing_url
p107
Vhttps://api.github.com/users/sourcemint/following{/other_user}
p108
sVevents_url
p109
Vhttps://api.github.com/users/sourcemint/events{/privacy}
p110
sVorganizations_url
p111
Vhttps://api.github.com/users/sourcemint/orgs
p112
sVurl
p113
Vhttps://api.github.com/users/sourcemint
p114
sVgists_url
p115
Vhttps://api.github.com/users/sourcemint/gists{/gist_id}
p116
sVhtml_url
p117
Vhttps://github.com/sourcemint
p118
sVsubscriptions_url
p119
Vhttps://api.github.com/users/sourcemint/subscriptions
p120
sVavatar_url
p121
Vhttps://avatars.githubusercontent.com/u/774128?
p122
sVrepos_url
p123
Vhttps://api.github.com/users/sourcemint/repos
p124
sVreceived_events_url
p125
Vhttps://api.github.com/users/sourcemint/received_events
p126
sVgravatar_id
p127
Vce95c8a57ab54f499f20f4d5bd536107
p128
sVstarred_url
p129
Vhttps://api.github.com/users/sourcemint/starred{/owner}{/repo}
p130
sVsite_admin
p131
I00
sVlogin
p132
Vsourcemint
p133
sVtype
p134
VOrganization
p135
sVid
p136
I774128
sVfollowers_url
p137
Vhttps://api.github.com/users/sourcemint/followers
p138
ssVstatuses_url
p139
Vhttps://api.github.com/repos/sourcemint/sm-npm/statuses/{sha}
p140
sVid
p141
I4142751
sVkeys_url
p142
Vhttps://api.github.com/repos/sourcemint/sm-npm/keys{/key_id}
p143
sVdescription
p144
g65
sVtags_url
p145
Vhttps://api.github.com/repos/sourcemint/sm-npm/tags
p146
sVdownloads_url
p147
Vhttps://api.github.com/repos/sourcemint/sm-npm/downloads
p148
sVassignees_url
p149
Vhttps://api.github.com/repos/sourcemint/sm-npm/assignees{/user}
p150
sVcontents_url
p151
Vhttps://api.github.com/repos/sourcemint/sm-npm/contents/{+path}
p152
sVgit_refs_url
p153
Vhttps://api.github.com/repos/sourcemint/sm-npm/git/refs{/sha}
p154
sVopen_issues_count
p155
I4
sVclone_url
p156
Vhttps://github.com/sourcemint/sm-npm.git
p157
sVwatchers_count
p158
I28
sVgit_tags_url
p159
Vhttps://api.github.com/repos/sourcemint/sm-npm/git/tags{/sha}
p160
sVmilestones_url
p161
Vhttps://api.github.com/repos/sourcemint/sm-npm/milestones{/number}
p162
sVlanguages_url
p163
Vhttps://api.github.com/repos/sourcemint/sm-npm/languages
p164
sVsize
p165
I581
sVhomepage
p166
NsVfork
p167
I00
sVcommits_url
p168
Vhttps://api.github.com/repos/sourcemint/sm-npm/commits{/sha}
p169
sVreleases_url
p170
Vhttps://api.github.com/repos/sourcemint/sm-npm/releases{/id}
p171
sVissue_events_url
p172
Vhttps://api.github.com/repos/sourcemint/sm-npm/issues/events{/number}
p173
sVarchive_url
p174
Vhttps://api.github.com/repos/sourcemint/sm-npm/{archive_format}{/ref}
p175
sVcomments_url
p176
Vhttps://api.github.com/repos/sourcemint/sm-npm/comments{/number}
p177
sVevents_url
p178
Vhttps://api.github.com/repos/sourcemint/sm-npm/events
p179
sVcontributors_url
p180
Vhttps://api.github.com/repos/sourcemint/sm-npm/contributors
p181
sVhtml_url
p182
Vhttps://github.com/sourcemint/sm-npm
p183
sVforks
p184
I4
sVcompare_url
p185
Vhttps://api.github.com/repos/sourcemint/sm-npm/compare/{base}...{head}
p186
sVopen_issues
p187
I4
sVgit_url
p188
Vgit://github.com/sourcemint/sm-npm.git
p189
sVsvn_url
p190
Vhttps://github.com/sourcemint/sm-npm
p191
sVmerges_url
p192
Vhttps://api.github.com/repos/sourcemint/sm-npm/merges
p193
sVhas_issues
p194
I01
sVssh_url
p195
Vgit@github.com:sourcemint/sm-npm.git
p196
sVblobs_url
p197
Vhttps://api.github.com/repos/sourcemint/sm-npm/git/blobs{/sha}
p198
sVmaster_branch
p199
Vmaster
p200
sVgit_commits_url
p201
Vhttps://api.github.com/repos/sourcemint/sm-npm/git/commits{/sha}
p202
sVhooks_url
p203
Vhttps://api.github.com/repos/sourcemint/sm-npm/hooks
p204
sVhas_downloads
p205
I01
sVwatchers
p206
I28
sVname
p207
Vsm-npm
p208
sVlanguage
p209
VJavaScript
p210
sVurl
p211
Vhttps://api.github.com/repos/sourcemint/sm-npm
p212
sVcreated_at
p213
V2012-04-26T00:24:15Z
p214
sVpushed_at
p215
V2013-04-26T15:47:56Z
p216
sVforks_count
p217
I4
sVdefault_branch
p218
Vmaster
p219
sVteams_url
p220
Vhttps://api.github.com/repos/sourcemint/sm-npm/teams
p221
sVtrees_url
p222
Vhttps://api.github.com/repos/sourcemint/sm-npm/git/trees{/sha}
p223
sVbranches_url
p224
Vhttps://api.github.com/repos/sourcemint/sm-npm/branches{/branch}
p225
sVsubscribers_url
p226
Vhttps://api.github.com/repos/sourcemint/sm-npm/subscribers
p227
sVstargazers_url
p228
Vhttps://api.github.com/repos/sourcemint/sm-npm/stargazers
p229
ssVclone_url
p230
Vhttps://github.com/kevwil/sm-npm.git
p231
sVwatchers_count
p232
I1
sVgit_tags_url
p233
Vhttps://api.github.com/repos/kevwil/sm-npm/git/tags{/sha}
p234
sVmilestones_url
p235
Vhttps://api.github.com/repos/kevwil/sm-npm/milestones{/number}
p236
sVlanguages_url
p237
Vhttps://api.github.com/repos/kevwil/sm-npm/languages
p238
sVsize
p239
I155
sVhomepage
p240
NsVfork
p241
I01
sVcommits_url
p242
Vhttps://api.github.com/repos/kevwil/sm-npm/commits{/sha}
p243
sVreleases_url
p244
Vhttps://api.github.com/repos/kevwil/sm-npm/releases{/id}
p245
sVissue_events_url
p246
Vhttps://api.github.com/repos/kevwil/sm-npm/issues/events{/number}
p247
sVparent
p248
(dp249
Vissues_url
p250
Vhttps://api.github.com/repos/sourcemint/sm-npm/issues{/number}
p251
sVstargazers_count
p252
I28
sVforks_url
p253
Vhttps://api.github.com/repos/sourcemint/sm-npm/forks
p254
sVmirror_url
p255
NsVsubscription_url
p256
Vhttps://api.github.com/repos/sourcemint/sm-npm/subscription
p257
sVnotifications_url
p258
Vhttps://api.github.com/repos/sourcemint/sm-npm/notifications{?since,all,participating}
p259
sVcollaborators_url
p260
Vhttps://api.github.com/repos/sourcemint/sm-npm/collaborators{/collaborator}
p261
sVupdated_at
p262
V2013-11-16T14:53:53Z
p263
sVprivate
p264
I00
sVpulls_url
p265
Vhttps://api.github.com/repos/sourcemint/sm-npm/pulls{/number}
p266
sVissue_comment_url
p267
Vhttps://api.github.com/repos/sourcemint/sm-npm/issues/comments/{number}
p268
sVlabels_url
p269
Vhttps://api.github.com/repos/sourcemint/sm-npm/labels{/name}
p270
sVhas_wiki
p271
I01
sVfull_name
p272
Vsourcemint/sm-npm
p273
sVowner
p274
(dp275
Vfollowing_url
p276
Vhttps://api.github.com/users/sourcemint/following{/other_user}
p277
sVevents_url
p278
Vhttps://api.github.com/users/sourcemint/events{/privacy}
p279
sVorganizations_url
p280
Vhttps://api.github.com/users/sourcemint/orgs
p281
sVurl
p282
Vhttps://api.github.com/users/sourcemint
p283
sVgists_url
p284
Vhttps://api.github.com/users/sourcemint/gists{/gist_id}
p285
sVhtml_url
p286
Vhttps://github.com/sourcemint
p287
sVsubscriptions_url
p288
Vhttps://api.github.com/users/sourcemint/subscriptions
p289
sVavatar_url
p290
Vhttps://avatars.githubusercontent.com/u/774128?
p291
sVrepos_url
p292
Vhttps://api.github.com/users/sourcemint/repos
p293
sVreceived_events_url
p294
Vhttps://api.github.com/users/sourcemint/received_events
p295
sVgravatar_id
p296
Vce95c8a57ab54f499f20f4d5bd536107
p297
sVstarred_url
p298
Vhttps://api.github.com/users/sourcemint/starred{/owner}{/repo}
p299
sVsite_admin
p300
I00
sVlogin
p301
Vsourcemint
p302
sVtype
p303
VOrganization
p304
sVid
p305
I774128
sVfollowers_url
p306
Vhttps://api.github.com/users/sourcemint/followers
p307
ssVstatuses_url
p308
Vhttps://api.github.com/repos/sourcemint/sm-npm/statuses/{sha}
p309
sVid
p310
I4142751
sVkeys_url
p311
Vhttps://api.github.com/repos/sourcemint/sm-npm/keys{/key_id}
p312
sVdescription
p313
g65
sVtags_url
p314
Vhttps://api.github.com/repos/sourcemint/sm-npm/tags
p315
sVdownloads_url
p316
Vhttps://api.github.com/repos/sourcemint/sm-npm/downloads
p317
sVassignees_url
p318
Vhttps://api.github.com/repos/sourcemint/sm-npm/assignees{/user}
p319
sVcontents_url
p320
Vhttps://api.github.com/repos/sourcemint/sm-npm/contents/{+path}
p321
sVgit_refs_url
p322
Vhttps://api.github.com/repos/sourcemint/sm-npm/git/refs{/sha}
p323
sVopen_issues_count
p324
I4
sVclone_url
p325
Vhttps://github.com/sourcemint/sm-npm.git
p326
sVwatchers_count
p327
I28
sVgit_tags_url
p328
Vhttps://api.github.com/repos/sourcemint/sm-npm/git/tags{/sha}
p329
sVmilestones_url
p330
Vhttps://api.github.com/repos/sourcemint/sm-npm/milestones{/number}
p331
sVlanguages_url
p332
Vhttps://api.github.com/repos/sourcemint/sm-npm/languages
p333
sVsize
p334
I581
sVhomepage
p335
NsVfork
p336
I00
sVcommits_url
p337
Vhttps://api.github.com/repos/sourcemint/sm-npm/commits{/sha}
p338
sVreleases_url
p339
Vhttps://api.github.com/repos/sourcemint/sm-npm/releases{/id}
p340
sVissue_events_url
p341
Vhttps://api.github.com/repos/sourcemint/sm-npm/issues/events{/number}
p342
sVarchive_url
p343
Vhttps://api.github.com/repos/sourcemint/sm-npm/{archive_format}{/ref}
p344
sVcomments_url
p345
Vhttps://api.github.com/repos/sourcemint/sm-npm/comments{/number}
p346
sVevents_url
p347
Vhttps://api.github.com/repos/sourcemint/sm-npm/events
p348
sVcontributors_url
p349
Vhttps://api.github.com/repos/sourcemint/sm-npm/contributors
p350
sVhtml_url
p351
Vhttps://github.com/sourcemint/sm-npm
p352
sVforks
p353
I4
sVcompare_url
p354
Vhttps://api.github.com/repos/sourcemint/sm-npm/compare/{base}...{head}
p355
sVopen_issues
p356
I4
sVgit_url
p357
Vgit://github.com/sourcemint/sm-npm.git
p358
sVsvn_url
p359
Vhttps://github.com/sourcemint/sm-npm
p360
sVmerges_url
p361
Vhttps://api.github.com/repos/sourcemint/sm-npm/merges
p362
sVhas_issues
p363
I01
sVssh_url
p364
Vgit@github.com:sourcemint/sm-npm.git
p365
sVblobs_url
p366
Vhttps://api.github.com/repos/sourcemint/sm-npm/git/blobs{/sha}
p367
sVmaster_branch
p368
Vmaster
p369
sVgit_commits_url
p370
Vhttps://api.github.com/repos/sourcemint/sm-npm/git/commits{/sha}
p371
sVhooks_url
p372
Vhttps://api.github.com/repos/sourcemint/sm-npm/hooks
p373
sVhas_downloads
p374
I01
sVwatchers
p375
I28
sVname
p376
Vsm-npm
p377
sVlanguage
p378
VJavaScript
p379
sVurl
p380
Vhttps://api.github.com/repos/sourcemint/sm-npm
p381
sVcreated_at
p382
V2012-04-26T00:24:15Z
p383
sVpushed_at
p384
V2013-04-26T15:47:56Z
p385
sVforks_count
p386
I4
sVdefault_branch
p387
Vmaster
p388
sVteams_url
p389
Vhttps://api.github.com/repos/sourcemint/sm-npm/teams
p390
sVtrees_url
p391
Vhttps://api.github.com/repos/sourcemint/sm-npm/git/trees{/sha}
p392
sVbranches_url
p393
Vhttps://api.github.com/repos/sourcemint/sm-npm/branches{/branch}
p394
sVsubscribers_url
p395
Vhttps://api.github.com/repos/sourcemint/sm-npm/subscribers
p396
sVstargazers_url
p397
Vhttps://api.github.com/repos/sourcemint/sm-npm/stargazers
p398
ssVarchive_url
p399
Vhttps://api.github.com/repos/kevwil/sm-npm/{archive_format}{/ref}
p400
sVcomments_url
p401
Vhttps://api.github.com/repos/kevwil/sm-npm/comments{/number}
p402
sVevents_url
p403
Vhttps://api.github.com/repos/kevwil/sm-npm/events
p404
sVcontributors_url
p405
Vhttps://api.github.com/repos/kevwil/sm-npm/contributors
p406
sVhtml_url
p407
Vhttps://github.com/kevwil/sm-npm
p408
sVforks
p409
I0
sVcompare_url
p410
Vhttps://api.github.com/repos/kevwil/sm-npm/compare/{base}...{head}
p411
sVopen_issues
p412
I0
sVgit_url
p413
Vgit://github.com/kevwil/sm-npm.git
p414
sVsvn_url
p415
Vhttps://github.com/kevwil/sm-npm
p416
sVmerges_url
p417
Vhttps://api.github.com/repos/kevwil/sm-npm/merges
p418
sVhas_issues
p419
I00
sVssh_url
p420
Vgit@github.com:kevwil/sm-npm.git
p421
sVblobs_url
p422
Vhttps://api.github.com/repos/kevwil/sm-npm/git/blobs{/sha}
p423
sVmaster_branch
p424
Vmaster
p425
sVgit_commits_url
p426
Vhttps://api.github.com/repos/kevwil/sm-npm/git/commits{/sha}
p427
sVhooks_url
p428
Vhttps://api.github.com/repos/kevwil/sm-npm/hooks
p429
sVhas_downloads
p430
I01
sVwatchers
p431
I1
sVname
p432
Vsm-npm
p433
sVlanguage
p434
VJavaScript
p435
sVurl
p436
Vhttps://api.github.com/repos/kevwil/sm-npm
p437
sVcreated_at
p438
V2012-06-28T15:23:49Z
p439
sVpushed_at
p440
V2012-06-28T15:25:32Z
p441
sVforks_count
p442
I0
sVdefault_branch
p443
Vmaster
p444
sVteams_url
p445
Vhttps://api.github.com/repos/kevwil/sm-npm/teams
p446
sVtrees_url
p447
Vhttps://api.github.com/repos/kevwil/sm-npm/git/trees{/sha}
p448
sVbranches_url
p449
Vhttps://api.github.com/repos/kevwil/sm-npm/branches{/branch}
p450
sVsubscribers_url
p451
Vhttps://api.github.com/repos/kevwil/sm-npm/subscribers
p452
sVstargazers_url
p453
Vhttps://api.github.com/repos/kevwil/sm-npm/stargazers
p454
s.