(dp0
Vissues_url
p1
Vhttps://api.github.com/repos/kevwil/kevwil.github.io/issues{/number}
p2
sVstargazers_count
p3
I2
sVforks_url
p4
Vhttps://api.github.com/repos/kevwil/kevwil.github.io/forks
p5
sVmirror_url
p6
NsVsubscription_url
p7
Vhttps://api.github.com/repos/kevwil/kevwil.github.io/subscription
p8
sVnotifications_url
p9
Vhttps://api.github.com/repos/kevwil/kevwil.github.io/notifications{?since,all,participating}
p10
sVcollaborators_url
p11
Vhttps://api.github.com/repos/kevwil/kevwil.github.io/collaborators{/collaborator}
p12
sVupdated_at
p13
V2013-12-11T16:05:11Z
p14
sVprivate
p15
I00
sVpulls_url
p16
Vhttps://api.github.com/repos/kevwil/kevwil.github.io/pulls{/number}
p17
sVissue_comment_url
p18
Vhttps://api.github.com/repos/kevwil/kevwil.github.io/issues/comments/{number}
p19
sVlabels_url
p20
Vhttps://api.github.com/repos/kevwil/kevwil.github.io/labels{/name}
p21
sVhas_wiki
p22
I00
sVfull_name
p23
Vkevwil/kevwil.github.io
p24
sVowner
p25
(dp26
Vfollowing_url
p27
Vhttps://api.github.com/users/kevwil/following{/other_user}
p28
sVevents_url
p29
Vhttps://api.github.com/users/kevwil/events{/privacy}
p30
sVorganizations_url
p31
Vhttps://api.github.com/users/kevwil/orgs
p32
sVurl
p33
Vhttps://api.github.com/users/kevwil
p34
sVgists_url
p35
Vhttps://api.github.com/users/kevwil/gists{/gist_id}
p36
sVhtml_url
p37
Vhttps://github.com/kevwil
p38
sVsubscriptions_url
p39
Vhttps://api.github.com/users/kevwil/subscriptions
p40
sVavatar_url
p41
Vhttps://avatars.githubusercontent.com/u/35?
p42
sVrepos_url
p43
Vhttps://api.github.com/users/kevwil/repos
p44
sVreceived_events_url
p45
Vhttps://api.github.com/users/kevwil/received_events
p46
sVgravatar_id
p47
V267942571862781dd912de6482a35f46
p48
sVstarred_url
p49
Vhttps://api.github.com/users/kevwil/starred{/owner}{/repo}
p50
sVsite_admin
p51
I00
sVlogin
p52
Vkevwil
p53
sVtype
p54
VUser
p55
sVid
p56
I35
sVfollowers_url
p57
Vhttps://api.github.com/users/kevwil/followers
p58
ssVstatuses_url
p59
Vhttps://api.github.com/repos/kevwil/kevwil.github.io/statuses/{sha}
p60
sVid
p61
I95347
sVkeys_url
p62
Vhttps://api.github.com/repos/kevwil/kevwil.github.io/keys{/key_id}
p63
sVdescription
p64
Vmy github pages site
p65
sVsubscribers_count
p66
I1
sVtags_url
p67
Vhttps://api.github.com/repos/kevwil/kevwil.github.io/tags
p68
sVnetwork_count
p69
I0
sVdownloads_url
p70
Vhttps://api.github.com/repos/kevwil/kevwil.github.io/downloads
p71
sVassignees_url
p72
Vhttps://api.github.com/repos/kevwil/kevwil.github.io/assignees{/user}
p73
sVcontents_url
p74
Vhttps://api.github.com/repos/kevwil/kevwil.github.io/contents/{+path}
p75
sVgit_refs_url
p76
Vhttps://api.github.com/repos/kevwil/kevwil.github.io/git/refs{/sha}
p77
sVopen_issues_count
p78
I0
sVclone_url
p79
Vhttps://github.com/kevwil/kevwil.github.io.git
p80
sVwatchers_count
p81
I2
sVgit_tags_url
p82
Vhttps://api.github.com/repos/kevwil/kevwil.github.io/git/tags{/sha}
p83
sVmilestones_url
p84
Vhttps://api.github.com/repos/kevwil/kevwil.github.io/milestones{/number}
p85
sVlanguages_url
p86
Vhttps://api.github.com/repos/kevwil/kevwil.github.io/languages
p87
sVsize
p88
I144
sVhomepage
p89
Vhttp://kevwil.github.io/
p90
sVfork
p91
I00
sVcommits_url
p92
Vhttps://api.github.com/repos/kevwil/kevwil.github.io/commits{/sha}
p93
sVreleases_url
p94
Vhttps://api.github.com/repos/kevwil/kevwil.github.io/releases{/id}
p95
sVissue_events_url
p96
Vhttps://api.github.com/repos/kevwil/kevwil.github.io/issues/events{/number}
p97
sVarchive_url
p98
Vhttps://api.github.com/repos/kevwil/kevwil.github.io/{archive_format}{/ref}
p99
sVcomments_url
p100
Vhttps://api.github.com/repos/kevwil/kevwil.github.io/comments{/number}
p101
sVevents_url
p102
Vhttps://api.github.com/repos/kevwil/kevwil.github.io/events
p103
sVcontributors_url
p104
Vhttps://api.github.com/repos/kevwil/kevwil.github.io/contributors
p105
sVhtml_url
p106
Vhttps://github.com/kevwil/kevwil.github.io
p107
sVforks
p108
I0
sVcompare_url
p109
Vhttps://api.github.com/repos/kevwil/kevwil.github.io/compare/{base}...{head}
p110
sVopen_issues
p111
I0
sVgit_url
p112
Vgit://github.com/kevwil/kevwil.github.io.git
p113
sVsvn_url
p114
Vhttps://github.com/kevwil/kevwil.github.io
p115
sVmerges_url
p116
Vhttps://api.github.com/repos/kevwil/kevwil.github.io/merges
p117
sVhas_issues
p118
I00
sVssh_url
p119
Vgit@github.com:kevwil/kevwil.github.io.git
p120
sVblobs_url
p121
Vhttps://api.github.com/repos/kevwil/kevwil.github.io/git/blobs{/sha}
p122
sVmaster_branch
p123
Vmaster
p124
sVgit_commits_url
p125
Vhttps://api.github.com/repos/kevwil/kevwil.github.io/git/commits{/sha}
p126
sVhooks_url
p127
Vhttps://api.github.com/repos/kevwil/kevwil.github.io/hooks
p128
sVhas_downloads
p129
I01
sVwatchers
p130
I2
sVname
p131
Vkevwil.github.io
p132
sVlanguage
p133
VCSS
p134
sVurl
p135
Vhttps://api.github.com/repos/kevwil/kevwil.github.io
p136
sVcreated_at
p137
V2008-12-22T15:56:42Z
p138
sVpushed_at
p139
V2013-12-11T16:05:10Z
p140
sVforks_count
p141
I0
sVdefault_branch
p142
Vmaster
p143
sVteams_url
p144
Vhttps://api.github.com/repos/kevwil/kevwil.github.io/teams
p145
sVtrees_url
p146
Vhttps://api.github.com/repos/kevwil/kevwil.github.io/git/trees{/sha}
p147
sVbranches_url
p148
Vhttps://api.github.com/repos/kevwil/kevwil.github.io/branches{/branch}
p149
sVsubscribers_url
p150
Vhttps://api.github.com/repos/kevwil/kevwil.github.io/subscribers
p151
sVstargazers_url
p152
Vhttps://api.github.com/repos/kevwil/kevwil.github.io/stargazers
p153
s.