(dp0
Vissues_url
p1
Vhttps://api.github.com/repos/kevwil/RestExpress/issues{/number}
p2
sVstargazers_count
p3
I1
sVforks_url
p4
Vhttps://api.github.com/repos/kevwil/RestExpress/forks
p5
sVmirror_url
p6
NsVsubscription_url
p7
Vhttps://api.github.com/repos/kevwil/RestExpress/subscription
p8
sVnotifications_url
p9
Vhttps://api.github.com/repos/kevwil/RestExpress/notifications{?since,all,participating}
p10
sVcollaborators_url
p11
Vhttps://api.github.com/repos/kevwil/RestExpress/collaborators{/collaborator}
p12
sVupdated_at
p13
V2014-02-28T20:01:01Z
p14
sVprivate
p15
I00
sVpulls_url
p16
Vhttps://api.github.com/repos/kevwil/RestExpress/pulls{/number}
p17
sVissue_comment_url
p18
Vhttps://api.github.com/repos/kevwil/RestExpress/issues/comments/{number}
p19
sVlabels_url
p20
Vhttps://api.github.com/repos/kevwil/RestExpress/labels{/name}
p21
sVhas_wiki
p22
I00
sVfull_name
p23
Vkevwil/RestExpress
p24
sVowner
p25
(dp26
Vfollowing_url
p27
Vhttps://api.github.com/users/kevwil/following{/other_user}
p28
sVevents_url
p29
Vhttps://api.github.com/users/kevwil/events{/privacy}
p30
sVorganizations_url
p31
Vhttps://api.github.com/users/kevwil/orgs
p32
sVurl
p33
Vhttps://api.github.com/users/kevwil
p34
sVgists_url
p35
Vhttps://api.github.com/users/kevwil/gists{/gist_id}
p36
sVhtml_url
p37
Vhttps://github.com/kevwil
p38
sVsubscriptions_url
p39
Vhttps://api.github.com/users/kevwil/subscriptions
p40
sVavatar_url
p41
Vhttps://avatars.githubusercontent.com/u/35?
p42
sVrepos_url
p43
Vhttps://api.github.com/users/kevwil/repos
p44
sVreceived_events_url
p45
Vhttps://api.github.com/users/kevwil/received_events
p46
sVgravatar_id
p47
V267942571862781dd912de6482a35f46
p48
sVstarred_url
p49
Vhttps://api.github.com/users/kevwil/starred{/owner}{/repo}
p50
sVsite_admin
p51
I00
sVlogin
p52
Vkevwil
p53
sVtype
p54
VUser
p55
sVid
p56
I35
sVfollowers_url
p57
Vhttps://api.github.com/users/kevwil/followers
p58
ssVstatuses_url
p59
Vhttps://api.github.com/repos/kevwil/RestExpress/statuses/{sha}
p60
sVid
p61
I1757939
sVkeys_url
p62
Vhttps://api.github.com/repos/kevwil/RestExpress/keys{/key_id}
p63
sVdescription
p64
VRestExpress is the easiest way to create RESTful web services in Java.  An extremely Lightweight, Fast, REST Engine and API for Java.  Supports JSON and XML serialization automagically as well as ISO 8601 date formats.  A thin wrapper on Netty IO HTTP handling, RestExpress lets you create performant, stand-alone REST web services rapidly.  Works 'expressly' well with Syntaxe, RepoExpress and OAuthExpress.
p65
sVsubscribers_count
p66
I1
sVtags_url
p67
Vhttps://api.github.com/repos/kevwil/RestExpress/tags
p68
sVnetwork_count
p69
I79
sVdownloads_url
p70
Vhttps://api.github.com/repos/kevwil/RestExpress/downloads
p71
sVassignees_url
p72
Vhttps://api.github.com/repos/kevwil/RestExpress/assignees{/user}
p73
sVcontents_url
p74
Vhttps://api.github.com/repos/kevwil/RestExpress/contents/{+path}
p75
sVgit_refs_url
p76
Vhttps://api.github.com/repos/kevwil/RestExpress/git/refs{/sha}
p77
sVopen_issues_count
p78
I0
sVsource
p79
(dp80
Vissues_url
p81
Vhttps://api.github.com/repos/tfredrich/RestExpress/issues{/number}
p82
sVstargazers_count
p83
I3
sVforks_url
p84
Vhttps://api.github.com/repos/tfredrich/RestExpress/forks
p85
sVmirror_url
p86
NsVsubscription_url
p87
Vhttps://api.github.com/repos/tfredrich/RestExpress/subscription
p88
sVnotifications_url
p89
Vhttps://api.github.com/repos/tfredrich/RestExpress/notifications{?since,all,participating}
p90
sVcollaborators_url
p91
Vhttps://api.github.com/repos/tfredrich/RestExpress/collaborators{/collaborator}
p92
sVupdated_at
p93
V2014-01-07T00:23:09Z
p94
sVprivate
p95
I00
sVpulls_url
p96
Vhttps://api.github.com/repos/tfredrich/RestExpress/pulls{/number}
p97
sVissue_comment_url
p98
Vhttps://api.github.com/repos/tfredrich/RestExpress/issues/comments/{number}
p99
sVlabels_url
p100
Vhttps://api.github.com/repos/tfredrich/RestExpress/labels{/name}
p101
sVhas_wiki
p102
I00
sVfull_name
p103
Vtfredrich/RestExpress
p104
sVowner
p105
(dp106
Vfollowing_url
p107
Vhttps://api.github.com/users/tfredrich/following{/other_user}
p108
sVevents_url
p109
Vhttps://api.github.com/users/tfredrich/events{/privacy}
p110
sVorganizations_url
p111
Vhttps://api.github.com/users/tfredrich/orgs
p112
sVurl
p113
Vhttps://api.github.com/users/tfredrich
p114
sVgists_url
p115
Vhttps://api.github.com/users/tfredrich/gists{/gist_id}
p116
sVhtml_url
p117
Vhttps://github.com/tfredrich
p118
sVsubscriptions_url
p119
Vhttps://api.github.com/users/tfredrich/subscriptions
p120
sVavatar_url
p121
Vhttps://avatars.githubusercontent.com/u/19241?
p122
sVrepos_url
p123
Vhttps://api.github.com/users/tfredrich/repos
p124
sVreceived_events_url
p125
Vhttps://api.github.com/users/tfredrich/received_events
p126
sVgravatar_id
p127
V5cad7743dff993f1a6e161f33dbf935d
p128
sVstarred_url
p129
Vhttps://api.github.com/users/tfredrich/starred{/owner}{/repo}
p130
sVsite_admin
p131
I00
sVlogin
p132
Vtfredrich
p133
sVtype
p134
VUser
p135
sVid
p136
I19241
sVfollowers_url
p137
Vhttps://api.github.com/users/tfredrich/followers
p138
ssVstatuses_url
p139
Vhttps://api.github.com/repos/tfredrich/RestExpress/statuses/{sha}
p140
sVid
p141
I1226991
sVkeys_url
p142
Vhttps://api.github.com/repos/tfredrich/RestExpress/keys{/key_id}
p143
sVdescription
p144
V*** Please use the RestExpress/RestExpress repo instead of this one--that is now the official repository.***
p145
sVtags_url
p146
Vhttps://api.github.com/repos/tfredrich/RestExpress/tags
p147
sVdownloads_url
p148
Vhttps://api.github.com/repos/tfredrich/RestExpress/downloads
p149
sVassignees_url
p150
Vhttps://api.github.com/repos/tfredrich/RestExpress/assignees{/user}
p151
sVcontents_url
p152
Vhttps://api.github.com/repos/tfredrich/RestExpress/contents/{+path}
p153
sVgit_refs_url
p154
Vhttps://api.github.com/repos/tfredrich/RestExpress/git/refs{/sha}
p155
sVopen_issues_count
p156
I0
sVclone_url
p157
Vhttps://github.com/tfredrich/RestExpress.git
p158
sVwatchers_count
p159
I3
sVgit_tags_url
p160
Vhttps://api.github.com/repos/tfredrich/RestExpress/git/tags{/sha}
p161
sVmilestones_url
p162
Vhttps://api.github.com/repos/tfredrich/RestExpress/milestones{/number}
p163
sVlanguages_url
p164
Vhttps://api.github.com/repos/tfredrich/RestExpress/languages
p165
sVsize
p166
I6453
sVhomepage
p167
Vhttps://github.com/RestExpress/RestExpress
p168
sVfork
p169
I00
sVcommits_url
p170
Vhttps://api.github.com/repos/tfredrich/RestExpress/commits{/sha}
p171
sVreleases_url
p172
Vhttps://api.github.com/repos/tfredrich/RestExpress/releases{/id}
p173
sVissue_events_url
p174
Vhttps://api.github.com/repos/tfredrich/RestExpress/issues/events{/number}
p175
sVarchive_url
p176
Vhttps://api.github.com/repos/tfredrich/RestExpress/{archive_format}{/ref}
p177
sVcomments_url
p178
Vhttps://api.github.com/repos/tfredrich/RestExpress/comments{/number}
p179
sVevents_url
p180
Vhttps://api.github.com/repos/tfredrich/RestExpress/events
p181
sVcontributors_url
p182
Vhttps://api.github.com/repos/tfredrich/RestExpress/contributors
p183
sVhtml_url
p184
Vhttps://github.com/tfredrich/RestExpress
p185
sVforks
p186
I79
sVcompare_url
p187
Vhttps://api.github.com/repos/tfredrich/RestExpress/compare/{base}...{head}
p188
sVopen_issues
p189
I0
sVgit_url
p190
Vgit://github.com/tfredrich/RestExpress.git
p191
sVsvn_url
p192
Vhttps://github.com/tfredrich/RestExpress
p193
sVmerges_url
p194
Vhttps://api.github.com/repos/tfredrich/RestExpress/merges
p195
sVhas_issues
p196
I00
sVssh_url
p197
Vgit@github.com:tfredrich/RestExpress.git
p198
sVblobs_url
p199
Vhttps://api.github.com/repos/tfredrich/RestExpress/git/blobs{/sha}
p200
sVmaster_branch
p201
Vmaster
p202
sVgit_commits_url
p203
Vhttps://api.github.com/repos/tfredrich/RestExpress/git/commits{/sha}
p204
sVhooks_url
p205
Vhttps://api.github.com/repos/tfredrich/RestExpress/hooks
p206
sVhas_downloads
p207
I01
sVwatchers
p208
I3
sVname
p209
VRestExpress
p210
sVlanguage
p211
VJava
p212
sVurl
p213
Vhttps://api.github.com/repos/tfredrich/RestExpress
p214
sVcreated_at
p215
V2011-01-06T17:33:44Z
p216
sVpushed_at
p217
V2012-06-27T20:08:53Z
p218
sVforks_count
p219
I79
sVdefault_branch
p220
Vmaster
p221
sVteams_url
p222
Vhttps://api.github.com/repos/tfredrich/RestExpress/teams
p223
sVtrees_url
p224
Vhttps://api.github.com/repos/tfredrich/RestExpress/git/trees{/sha}
p225
sVbranches_url
p226
Vhttps://api.github.com/repos/tfredrich/RestExpress/branches{/branch}
p227
sVsubscribers_url
p228
Vhttps://api.github.com/repos/tfredrich/RestExpress/subscribers
p229
sVstargazers_url
p230
Vhttps://api.github.com/repos/tfredrich/RestExpress/stargazers
p231
ssVclone_url
p232
Vhttps://github.com/kevwil/RestExpress.git
p233
sVwatchers_count
p234
I1
sVgit_tags_url
p235
Vhttps://api.github.com/repos/kevwil/RestExpress/git/tags{/sha}
p236
sVmilestones_url
p237
Vhttps://api.github.com/repos/kevwil/RestExpress/milestones{/number}
p238
sVlanguages_url
p239
Vhttps://api.github.com/repos/kevwil/RestExpress/languages
p240
sVsize
p241
I39113
sVhomepage
p242
V
p243
sVfork
p244
I01
sVcommits_url
p245
Vhttps://api.github.com/repos/kevwil/RestExpress/commits{/sha}
p246
sVreleases_url
p247
Vhttps://api.github.com/repos/kevwil/RestExpress/releases{/id}
p248
sVissue_events_url
p249
Vhttps://api.github.com/repos/kevwil/RestExpress/issues/events{/number}
p250
sVparent
p251
(dp252
Vissues_url
p253
Vhttps://api.github.com/repos/RestExpress/RestExpress/issues{/number}
p254
sVstargazers_count
p255
I245
sVforks_url
p256
Vhttps://api.github.com/repos/RestExpress/RestExpress/forks
p257
sVmirror_url
p258
NsVsubscription_url
p259
Vhttps://api.github.com/repos/RestExpress/RestExpress/subscription
p260
sVnotifications_url
p261
Vhttps://api.github.com/repos/RestExpress/RestExpress/notifications{?since,all,participating}
p262
sVcollaborators_url
p263
Vhttps://api.github.com/repos/RestExpress/RestExpress/collaborators{/collaborator}
p264
sVupdated_at
p265
V2014-03-19T17:59:35Z
p266
sVprivate
p267
I00
sVpulls_url
p268
Vhttps://api.github.com/repos/RestExpress/RestExpress/pulls{/number}
p269
sVissue_comment_url
p270
Vhttps://api.github.com/repos/RestExpress/RestExpress/issues/comments/{number}
p271
sVlabels_url
p272
Vhttps://api.github.com/repos/RestExpress/RestExpress/labels{/name}
p273
sVhas_wiki
p274
I01
sVfull_name
p275
VRestExpress/RestExpress
p276
sVowner
p277
(dp278
Vfollowing_url
p279
Vhttps://api.github.com/users/RestExpress/following{/other_user}
p280
sVevents_url
p281
Vhttps://api.github.com/users/RestExpress/events{/privacy}
p282
sVorganizations_url
p283
Vhttps://api.github.com/users/RestExpress/orgs
p284
sVurl
p285
Vhttps://api.github.com/users/RestExpress
p286
sVgists_url
p287
Vhttps://api.github.com/users/RestExpress/gists{/gist_id}
p288
sVhtml_url
p289
Vhttps://github.com/RestExpress
p290
sVsubscriptions_url
p291
Vhttps://api.github.com/users/RestExpress/subscriptions
p292
sVavatar_url
p293
Vhttps://avatars.githubusercontent.com/u/547460?
p294
sVrepos_url
p295
Vhttps://api.github.com/users/RestExpress/repos
p296
sVreceived_events_url
p297
Vhttps://api.github.com/users/RestExpress/received_events
p298
sVgravatar_id
p299
Ve658a470438eb3cf210230f7304a49ae
p300
sVstarred_url
p301
Vhttps://api.github.com/users/RestExpress/starred{/owner}{/repo}
p302
sVsite_admin
p303
I00
sVlogin
p304
VRestExpress
p305
sVtype
p306
VOrganization
p307
sVid
p308
I547460
sVfollowers_url
p309
Vhttps://api.github.com/users/RestExpress/followers
p310
ssVstatuses_url
p311
Vhttps://api.github.com/repos/RestExpress/RestExpress/statuses/{sha}
p312
sVid
p313
I1227017
sVkeys_url
p314
Vhttps://api.github.com/repos/RestExpress/RestExpress/keys{/key_id}
p315
sVdescription
p316
VRestExpress is the easiest way to create RESTful web services in Java.  An extremely Lightweight, Fast, REST Engine and API for Java.  Supports JSON and XML serialization automagically as well as ISO 8601 date formats.  A thin wrapper on Netty IO HTTP handling, RestExpress lets you create performant, stand-alone REST web services rapidly.  Works 'expressly' well with Syntaxe, RepoExpress and OAuthExpress.  RestExpress supports the best practices proposed in the Best Practice document available at: http://www.restapitutorial.com
p317
sVtags_url
p318
Vhttps://api.github.com/repos/RestExpress/RestExpress/tags
p319
sVdownloads_url
p320
Vhttps://api.github.com/repos/RestExpress/RestExpress/downloads
p321
sVassignees_url
p322
Vhttps://api.github.com/repos/RestExpress/RestExpress/assignees{/user}
p323
sVcontents_url
p324
Vhttps://api.github.com/repos/RestExpress/RestExpress/contents/{+path}
p325
sVgit_refs_url
p326
Vhttps://api.github.com/repos/RestExpress/RestExpress/git/refs{/sha}
p327
sVopen_issues_count
p328
I23
sVclone_url
p329
Vhttps://github.com/RestExpress/RestExpress.git
p330
sVwatchers_count
p331
I245
sVgit_tags_url
p332
Vhttps://api.github.com/repos/RestExpress/RestExpress/git/tags{/sha}
p333
sVmilestones_url
p334
Vhttps://api.github.com/repos/RestExpress/RestExpress/milestones{/number}
p335
sVlanguages_url
p336
Vhttps://api.github.com/repos/RestExpress/RestExpress/languages
p337
sVsize
p338
I164398
sVhomepage
p339
Vhttps://groups.google.com/d/forum/restexpress
p340
sVfork
p341
I01
sVcommits_url
p342
Vhttps://api.github.com/repos/RestExpress/RestExpress/commits{/sha}
p343
sVreleases_url
p344
Vhttps://api.github.com/repos/RestExpress/RestExpress/releases{/id}
p345
sVissue_events_url
p346
Vhttps://api.github.com/repos/RestExpress/RestExpress/issues/events{/number}
p347
sVarchive_url
p348
Vhttps://api.github.com/repos/RestExpress/RestExpress/{archive_format}{/ref}
p349
sVcomments_url
p350
Vhttps://api.github.com/repos/RestExpress/RestExpress/comments{/number}
p351
sVevents_url
p352
Vhttps://api.github.com/repos/RestExpress/RestExpress/events
p353
sVcontributors_url
p354
Vhttps://api.github.com/repos/RestExpress/RestExpress/contributors
p355
sVhtml_url
p356
Vhttps://github.com/RestExpress/RestExpress
p357
sVforks
p358
I73
sVcompare_url
p359
Vhttps://api.github.com/repos/RestExpress/RestExpress/compare/{base}...{head}
p360
sVopen_issues
p361
I23
sVgit_url
p362
Vgit://github.com/RestExpress/RestExpress.git
p363
sVsvn_url
p364
Vhttps://github.com/RestExpress/RestExpress
p365
sVmerges_url
p366
Vhttps://api.github.com/repos/RestExpress/RestExpress/merges
p367
sVhas_issues
p368
I01
sVssh_url
p369
Vgit@github.com:RestExpress/RestExpress.git
p370
sVblobs_url
p371
Vhttps://api.github.com/repos/RestExpress/RestExpress/git/blobs{/sha}
p372
sVmaster_branch
p373
Vmaster
p374
sVgit_commits_url
p375
Vhttps://api.github.com/repos/RestExpress/RestExpress/git/commits{/sha}
p376
sVhooks_url
p377
Vhttps://api.github.com/repos/RestExpress/RestExpress/hooks
p378
sVhas_downloads
p379
I01
sVwatchers
p380
I245
sVname
p381
VRestExpress
p382
sVlanguage
p383
VJava
p384
sVurl
p385
Vhttps://api.github.com/repos/RestExpress/RestExpress
p386
sVcreated_at
p387
V2011-01-06T17:42:02Z
p388
sVpushed_at
p389
V2014-03-19T17:59:35Z
p390
sVforks_count
p391
I73
sVdefault_branch
p392
Vmaster
p393
sVteams_url
p394
Vhttps://api.github.com/repos/RestExpress/RestExpress/teams
p395
sVtrees_url
p396
Vhttps://api.github.com/repos/RestExpress/RestExpress/git/trees{/sha}
p397
sVbranches_url
p398
Vhttps://api.github.com/repos/RestExpress/RestExpress/branches{/branch}
p399
sVsubscribers_url
p400
Vhttps://api.github.com/repos/RestExpress/RestExpress/subscribers
p401
sVstargazers_url
p402
Vhttps://api.github.com/repos/RestExpress/RestExpress/stargazers
p403
ssVarchive_url
p404
Vhttps://api.github.com/repos/kevwil/RestExpress/{archive_format}{/ref}
p405
sVcomments_url
p406
Vhttps://api.github.com/repos/kevwil/RestExpress/comments{/number}
p407
sVevents_url
p408
Vhttps://api.github.com/repos/kevwil/RestExpress/events
p409
sVcontributors_url
p410
Vhttps://api.github.com/repos/kevwil/RestExpress/contributors
p411
sVhtml_url
p412
Vhttps://github.com/kevwil/RestExpress
p413
sVforks
p414
I0
sVcompare_url
p415
Vhttps://api.github.com/repos/kevwil/RestExpress/compare/{base}...{head}
p416
sVopen_issues
p417
I0
sVgit_url
p418
Vgit://github.com/kevwil/RestExpress.git
p419
sVsvn_url
p420
Vhttps://github.com/kevwil/RestExpress
p421
sVmerges_url
p422
Vhttps://api.github.com/repos/kevwil/RestExpress/merges
p423
sVhas_issues
p424
I00
sVssh_url
p425
Vgit@github.com:kevwil/RestExpress.git
p426
sVblobs_url
p427
Vhttps://api.github.com/repos/kevwil/RestExpress/git/blobs{/sha}
p428
sVmaster_branch
p429
Vrelease
p430
sVgit_commits_url
p431
Vhttps://api.github.com/repos/kevwil/RestExpress/git/commits{/sha}
p432
sVhooks_url
p433
Vhttps://api.github.com/repos/kevwil/RestExpress/hooks
p434
sVhas_downloads
p435
I01
sVwatchers
p436
I1
sVname
p437
VRestExpress
p438
sVlanguage
p439
VJava
p440
sVurl
p441
Vhttps://api.github.com/repos/kevwil/RestExpress
p442
sVcreated_at
p443
V2011-05-16T22:05:52Z
p444
sVpushed_at
p445
V2014-02-28T19:58:29Z
p446
sVforks_count
p447
I0
sVdefault_branch
p448
Vrelease
p449
sVteams_url
p450
Vhttps://api.github.com/repos/kevwil/RestExpress/teams
p451
sVtrees_url
p452
Vhttps://api.github.com/repos/kevwil/RestExpress/git/trees{/sha}
p453
sVbranches_url
p454
Vhttps://api.github.com/repos/kevwil/RestExpress/branches{/branch}
p455
sVsubscribers_url
p456
Vhttps://api.github.com/repos/kevwil/RestExpress/subscribers
p457
sVstargazers_url
p458
Vhttps://api.github.com/repos/kevwil/RestExpress/stargazers
p459
s.