(dp0
Vissues_url
p1
Vhttps://api.github.com/repos/kevwil/RestExpress-Scaffold/issues{/number}
p2
sVstargazers_count
p3
I0
sVforks_url
p4
Vhttps://api.github.com/repos/kevwil/RestExpress-Scaffold/forks
p5
sVmirror_url
p6
NsVsubscription_url
p7
Vhttps://api.github.com/repos/kevwil/RestExpress-Scaffold/subscription
p8
sVnotifications_url
p9
Vhttps://api.github.com/repos/kevwil/RestExpress-Scaffold/notifications{?since,all,participating}
p10
sVcollaborators_url
p11
Vhttps://api.github.com/repos/kevwil/RestExpress-Scaffold/collaborators{/collaborator}
p12
sVupdated_at
p13
V2013-06-12T15:54:28Z
p14
sVprivate
p15
I00
sVpulls_url
p16
Vhttps://api.github.com/repos/kevwil/RestExpress-Scaffold/pulls{/number}
p17
sVissue_comment_url
p18
Vhttps://api.github.com/repos/kevwil/RestExpress-Scaffold/issues/comments/{number}
p19
sVlabels_url
p20
Vhttps://api.github.com/repos/kevwil/RestExpress-Scaffold/labels{/name}
p21
sVhas_wiki
p22
I01
sVfull_name
p23
Vkevwil/RestExpress-Scaffold
p24
sVowner
p25
(dp26
Vfollowing_url
p27
Vhttps://api.github.com/users/kevwil/following{/other_user}
p28
sVevents_url
p29
Vhttps://api.github.com/users/kevwil/events{/privacy}
p30
sVorganizations_url
p31
Vhttps://api.github.com/users/kevwil/orgs
p32
sVurl
p33
Vhttps://api.github.com/users/kevwil
p34
sVgists_url
p35
Vhttps://api.github.com/users/kevwil/gists{/gist_id}
p36
sVhtml_url
p37
Vhttps://github.com/kevwil
p38
sVsubscriptions_url
p39
Vhttps://api.github.com/users/kevwil/subscriptions
p40
sVavatar_url
p41
Vhttps://avatars.githubusercontent.com/u/35?
p42
sVrepos_url
p43
Vhttps://api.github.com/users/kevwil/repos
p44
sVreceived_events_url
p45
Vhttps://api.github.com/users/kevwil/received_events
p46
sVgravatar_id
p47
V267942571862781dd912de6482a35f46
p48
sVstarred_url
p49
Vhttps://api.github.com/users/kevwil/starred{/owner}{/repo}
p50
sVsite_admin
p51
I00
sVlogin
p52
Vkevwil
p53
sVtype
p54
VUser
p55
sVid
p56
I35
sVfollowers_url
p57
Vhttps://api.github.com/users/kevwil/followers
p58
ssVstatuses_url
p59
Vhttps://api.github.com/repos/kevwil/RestExpress-Scaffold/statuses/{sha}
p60
sVid
p61
I10646304
sVkeys_url
p62
Vhttps://api.github.com/repos/kevwil/RestExpress-Scaffold/keys{/key_id}
p63
sVdescription
p64
VRails-inspired kick-start or scaffolding to create new RestExpress projects quickly.
p65
sVsubscribers_count
p66
I0
sVtags_url
p67
Vhttps://api.github.com/repos/kevwil/RestExpress-Scaffold/tags
p68
sVnetwork_count
p69
I3
sVdownloads_url
p70
Vhttps://api.github.com/repos/kevwil/RestExpress-Scaffold/downloads
p71
sVassignees_url
p72
Vhttps://api.github.com/repos/kevwil/RestExpress-Scaffold/assignees{/user}
p73
sVcontents_url
p74
Vhttps://api.github.com/repos/kevwil/RestExpress-Scaffold/contents/{+path}
p75
sVgit_refs_url
p76
Vhttps://api.github.com/repos/kevwil/RestExpress-Scaffold/git/refs{/sha}
p77
sVopen_issues_count
p78
I0
sVsource
p79
(dp80
Vissues_url
p81
Vhttps://api.github.com/repos/RestExpress/RestExpress-Scaffold/issues{/number}
p82
sVstargazers_count
p83
I1
sVforks_url
p84
Vhttps://api.github.com/repos/RestExpress/RestExpress-Scaffold/forks
p85
sVmirror_url
p86
NsVsubscription_url
p87
Vhttps://api.github.com/repos/RestExpress/RestExpress-Scaffold/subscription
p88
sVnotifications_url
p89
Vhttps://api.github.com/repos/RestExpress/RestExpress-Scaffold/notifications{?since,all,participating}
p90
sVcollaborators_url
p91
Vhttps://api.github.com/repos/RestExpress/RestExpress-Scaffold/collaborators{/collaborator}
p92
sVupdated_at
p93
V2014-01-27T04:59:15Z
p94
sVprivate
p95
I00
sVpulls_url
p96
Vhttps://api.github.com/repos/RestExpress/RestExpress-Scaffold/pulls{/number}
p97
sVissue_comment_url
p98
Vhttps://api.github.com/repos/RestExpress/RestExpress-Scaffold/issues/comments/{number}
p99
sVlabels_url
p100
Vhttps://api.github.com/repos/RestExpress/RestExpress-Scaffold/labels{/name}
p101
sVhas_wiki
p102
I01
sVfull_name
p103
VRestExpress/RestExpress-Scaffold
p104
sVowner
p105
(dp106
Vfollowing_url
p107
Vhttps://api.github.com/users/RestExpress/following{/other_user}
p108
sVevents_url
p109
Vhttps://api.github.com/users/RestExpress/events{/privacy}
p110
sVorganizations_url
p111
Vhttps://api.github.com/users/RestExpress/orgs
p112
sVurl
p113
Vhttps://api.github.com/users/RestExpress
p114
sVgists_url
p115
Vhttps://api.github.com/users/RestExpress/gists{/gist_id}
p116
sVhtml_url
p117
Vhttps://github.com/RestExpress
p118
sVsubscriptions_url
p119
Vhttps://api.github.com/users/RestExpress/subscriptions
p120
sVavatar_url
p121
Vhttps://avatars.githubusercontent.com/u/547460?
p122
sVrepos_url
p123
Vhttps://api.github.com/users/RestExpress/repos
p124
sVreceived_events_url
p125
Vhttps://api.github.com/users/RestExpress/received_events
p126
sVgravatar_id
p127
Ve658a470438eb3cf210230f7304a49ae
p128
sVstarred_url
p129
Vhttps://api.github.com/users/RestExpress/starred{/owner}{/repo}
p130
sVsite_admin
p131
I00
sVlogin
p132
VRestExpress
p133
sVtype
p134
VOrganization
p135
sVid
p136
I547460
sVfollowers_url
p137
Vhttps://api.github.com/users/RestExpress/followers
p138
ssVstatuses_url
p139
Vhttps://api.github.com/repos/RestExpress/RestExpress-Scaffold/statuses/{sha}
p140
sVid
p141
I5198645
sVkeys_url
p142
Vhttps://api.github.com/repos/RestExpress/RestExpress-Scaffold/keys{/key_id}
p143
sVdescription
p144
VRails-inspired kick-start or scaffolding to create new RestExpress projects quickly.
p145
sVtags_url
p146
Vhttps://api.github.com/repos/RestExpress/RestExpress-Scaffold/tags
p147
sVdownloads_url
p148
Vhttps://api.github.com/repos/RestExpress/RestExpress-Scaffold/downloads
p149
sVassignees_url
p150
Vhttps://api.github.com/repos/RestExpress/RestExpress-Scaffold/assignees{/user}
p151
sVcontents_url
p152
Vhttps://api.github.com/repos/RestExpress/RestExpress-Scaffold/contents/{+path}
p153
sVgit_refs_url
p154
Vhttps://api.github.com/repos/RestExpress/RestExpress-Scaffold/git/refs{/sha}
p155
sVopen_issues_count
p156
I0
sVclone_url
p157
Vhttps://github.com/RestExpress/RestExpress-Scaffold.git
p158
sVwatchers_count
p159
I1
sVgit_tags_url
p160
Vhttps://api.github.com/repos/RestExpress/RestExpress-Scaffold/git/tags{/sha}
p161
sVmilestones_url
p162
Vhttps://api.github.com/repos/RestExpress/RestExpress-Scaffold/milestones{/number}
p163
sVlanguages_url
p164
Vhttps://api.github.com/repos/RestExpress/RestExpress-Scaffold/languages
p165
sVsize
p166
I12870
sVhomepage
p167
NsVfork
p168
I00
sVcommits_url
p169
Vhttps://api.github.com/repos/RestExpress/RestExpress-Scaffold/commits{/sha}
p170
sVreleases_url
p171
Vhttps://api.github.com/repos/RestExpress/RestExpress-Scaffold/releases{/id}
p172
sVissue_events_url
p173
Vhttps://api.github.com/repos/RestExpress/RestExpress-Scaffold/issues/events{/number}
p174
sVarchive_url
p175
Vhttps://api.github.com/repos/RestExpress/RestExpress-Scaffold/{archive_format}{/ref}
p176
sVcomments_url
p177
Vhttps://api.github.com/repos/RestExpress/RestExpress-Scaffold/comments{/number}
p178
sVevents_url
p179
Vhttps://api.github.com/repos/RestExpress/RestExpress-Scaffold/events
p180
sVcontributors_url
p181
Vhttps://api.github.com/repos/RestExpress/RestExpress-Scaffold/contributors
p182
sVhtml_url
p183
Vhttps://github.com/RestExpress/RestExpress-Scaffold
p184
sVforks
p185
I3
sVcompare_url
p186
Vhttps://api.github.com/repos/RestExpress/RestExpress-Scaffold/compare/{base}...{head}
p187
sVopen_issues
p188
I0
sVgit_url
p189
Vgit://github.com/RestExpress/RestExpress-Scaffold.git
p190
sVsvn_url
p191
Vhttps://github.com/RestExpress/RestExpress-Scaffold
p192
sVmerges_url
p193
Vhttps://api.github.com/repos/RestExpress/RestExpress-Scaffold/merges
p194
sVhas_issues
p195
I01
sVssh_url
p196
Vgit@github.com:RestExpress/RestExpress-Scaffold.git
p197
sVblobs_url
p198
Vhttps://api.github.com/repos/RestExpress/RestExpress-Scaffold/git/blobs{/sha}
p199
sVmaster_branch
p200
Vmaster
p201
sVgit_commits_url
p202
Vhttps://api.github.com/repos/RestExpress/RestExpress-Scaffold/git/commits{/sha}
p203
sVhooks_url
p204
Vhttps://api.github.com/repos/RestExpress/RestExpress-Scaffold/hooks
p205
sVhas_downloads
p206
I01
sVwatchers
p207
I1
sVname
p208
VRestExpress-Scaffold
p209
sVlanguage
p210
VJava
p211
sVurl
p212
Vhttps://api.github.com/repos/RestExpress/RestExpress-Scaffold
p213
sVcreated_at
p214
V2012-07-26T23:42:19Z
p215
sVpushed_at
p216
V2014-01-27T04:59:12Z
p217
sVforks_count
p218
I3
sVdefault_branch
p219
Vmaster
p220
sVteams_url
p221
Vhttps://api.github.com/repos/RestExpress/RestExpress-Scaffold/teams
p222
sVtrees_url
p223
Vhttps://api.github.com/repos/RestExpress/RestExpress-Scaffold/git/trees{/sha}
p224
sVbranches_url
p225
Vhttps://api.github.com/repos/RestExpress/RestExpress-Scaffold/branches{/branch}
p226
sVsubscribers_url
p227
Vhttps://api.github.com/repos/RestExpress/RestExpress-Scaffold/subscribers
p228
sVstargazers_url
p229
Vhttps://api.github.com/repos/RestExpress/RestExpress-Scaffold/stargazers
p230
ssVclone_url
p231
Vhttps://github.com/kevwil/RestExpress-Scaffold.git
p232
sVwatchers_count
p233
I0
sVgit_tags_url
p234
Vhttps://api.github.com/repos/kevwil/RestExpress-Scaffold/git/tags{/sha}
p235
sVmilestones_url
p236
Vhttps://api.github.com/repos/kevwil/RestExpress-Scaffold/milestones{/number}
p237
sVlanguages_url
p238
Vhttps://api.github.com/repos/kevwil/RestExpress-Scaffold/languages
p239
sVsize
p240
I12571
sVhomepage
p241
NsVfork
p242
I01
sVcommits_url
p243
Vhttps://api.github.com/repos/kevwil/RestExpress-Scaffold/commits{/sha}
p244
sVreleases_url
p245
Vhttps://api.github.com/repos/kevwil/RestExpress-Scaffold/releases{/id}
p246
sVissue_events_url
p247
Vhttps://api.github.com/repos/kevwil/RestExpress-Scaffold/issues/events{/number}
p248
sVparent
p249
(dp250
Vissues_url
p251
Vhttps://api.github.com/repos/RestExpress/RestExpress-Scaffold/issues{/number}
p252
sVstargazers_count
p253
I1
sVforks_url
p254
Vhttps://api.github.com/repos/RestExpress/RestExpress-Scaffold/forks
p255
sVmirror_url
p256
NsVsubscription_url
p257
Vhttps://api.github.com/repos/RestExpress/RestExpress-Scaffold/subscription
p258
sVnotifications_url
p259
Vhttps://api.github.com/repos/RestExpress/RestExpress-Scaffold/notifications{?since,all,participating}
p260
sVcollaborators_url
p261
Vhttps://api.github.com/repos/RestExpress/RestExpress-Scaffold/collaborators{/collaborator}
p262
sVupdated_at
p263
V2014-01-27T04:59:15Z
p264
sVprivate
p265
I00
sVpulls_url
p266
Vhttps://api.github.com/repos/RestExpress/RestExpress-Scaffold/pulls{/number}
p267
sVissue_comment_url
p268
Vhttps://api.github.com/repos/RestExpress/RestExpress-Scaffold/issues/comments/{number}
p269
sVlabels_url
p270
Vhttps://api.github.com/repos/RestExpress/RestExpress-Scaffold/labels{/name}
p271
sVhas_wiki
p272
I01
sVfull_name
p273
VRestExpress/RestExpress-Scaffold
p274
sVowner
p275
(dp276
Vfollowing_url
p277
Vhttps://api.github.com/users/RestExpress/following{/other_user}
p278
sVevents_url
p279
Vhttps://api.github.com/users/RestExpress/events{/privacy}
p280
sVorganizations_url
p281
Vhttps://api.github.com/users/RestExpress/orgs
p282
sVurl
p283
Vhttps://api.github.com/users/RestExpress
p284
sVgists_url
p285
Vhttps://api.github.com/users/RestExpress/gists{/gist_id}
p286
sVhtml_url
p287
Vhttps://github.com/RestExpress
p288
sVsubscriptions_url
p289
Vhttps://api.github.com/users/RestExpress/subscriptions
p290
sVavatar_url
p291
Vhttps://avatars.githubusercontent.com/u/547460?
p292
sVrepos_url
p293
Vhttps://api.github.com/users/RestExpress/repos
p294
sVreceived_events_url
p295
Vhttps://api.github.com/users/RestExpress/received_events
p296
sVgravatar_id
p297
Ve658a470438eb3cf210230f7304a49ae
p298
sVstarred_url
p299
Vhttps://api.github.com/users/RestExpress/starred{/owner}{/repo}
p300
sVsite_admin
p301
I00
sVlogin
p302
VRestExpress
p303
sVtype
p304
VOrganization
p305
sVid
p306
I547460
sVfollowers_url
p307
Vhttps://api.github.com/users/RestExpress/followers
p308
ssVstatuses_url
p309
Vhttps://api.github.com/repos/RestExpress/RestExpress-Scaffold/statuses/{sha}
p310
sVid
p311
I5198645
sVkeys_url
p312
Vhttps://api.github.com/repos/RestExpress/RestExpress-Scaffold/keys{/key_id}
p313
sVdescription
p314
VRails-inspired kick-start or scaffolding to create new RestExpress projects quickly.
p315
sVtags_url
p316
Vhttps://api.github.com/repos/RestExpress/RestExpress-Scaffold/tags
p317
sVdownloads_url
p318
Vhttps://api.github.com/repos/RestExpress/RestExpress-Scaffold/downloads
p319
sVassignees_url
p320
Vhttps://api.github.com/repos/RestExpress/RestExpress-Scaffold/assignees{/user}
p321
sVcontents_url
p322
Vhttps://api.github.com/repos/RestExpress/RestExpress-Scaffold/contents/{+path}
p323
sVgit_refs_url
p324
Vhttps://api.github.com/repos/RestExpress/RestExpress-Scaffold/git/refs{/sha}
p325
sVopen_issues_count
p326
I0
sVclone_url
p327
Vhttps://github.com/RestExpress/RestExpress-Scaffold.git
p328
sVwatchers_count
p329
I1
sVgit_tags_url
p330
Vhttps://api.github.com/repos/RestExpress/RestExpress-Scaffold/git/tags{/sha}
p331
sVmilestones_url
p332
Vhttps://api.github.com/repos/RestExpress/RestExpress-Scaffold/milestones{/number}
p333
sVlanguages_url
p334
Vhttps://api.github.com/repos/RestExpress/RestExpress-Scaffold/languages
p335
sVsize
p336
I12870
sVhomepage
p337
NsVfork
p338
I00
sVcommits_url
p339
Vhttps://api.github.com/repos/RestExpress/RestExpress-Scaffold/commits{/sha}
p340
sVreleases_url
p341
Vhttps://api.github.com/repos/RestExpress/RestExpress-Scaffold/releases{/id}
p342
sVissue_events_url
p343
Vhttps://api.github.com/repos/RestExpress/RestExpress-Scaffold/issues/events{/number}
p344
sVarchive_url
p345
Vhttps://api.github.com/repos/RestExpress/RestExpress-Scaffold/{archive_format}{/ref}
p346
sVcomments_url
p347
Vhttps://api.github.com/repos/RestExpress/RestExpress-Scaffold/comments{/number}
p348
sVevents_url
p349
Vhttps://api.github.com/repos/RestExpress/RestExpress-Scaffold/events
p350
sVcontributors_url
p351
Vhttps://api.github.com/repos/RestExpress/RestExpress-Scaffold/contributors
p352
sVhtml_url
p353
Vhttps://github.com/RestExpress/RestExpress-Scaffold
p354
sVforks
p355
I3
sVcompare_url
p356
Vhttps://api.github.com/repos/RestExpress/RestExpress-Scaffold/compare/{base}...{head}
p357
sVopen_issues
p358
I0
sVgit_url
p359
Vgit://github.com/RestExpress/RestExpress-Scaffold.git
p360
sVsvn_url
p361
Vhttps://github.com/RestExpress/RestExpress-Scaffold
p362
sVmerges_url
p363
Vhttps://api.github.com/repos/RestExpress/RestExpress-Scaffold/merges
p364
sVhas_issues
p365
I01
sVssh_url
p366
Vgit@github.com:RestExpress/RestExpress-Scaffold.git
p367
sVblobs_url
p368
Vhttps://api.github.com/repos/RestExpress/RestExpress-Scaffold/git/blobs{/sha}
p369
sVmaster_branch
p370
Vmaster
p371
sVgit_commits_url
p372
Vhttps://api.github.com/repos/RestExpress/RestExpress-Scaffold/git/commits{/sha}
p373
sVhooks_url
p374
Vhttps://api.github.com/repos/RestExpress/RestExpress-Scaffold/hooks
p375
sVhas_downloads
p376
I01
sVwatchers
p377
I1
sVname
p378
VRestExpress-Scaffold
p379
sVlanguage
p380
VJava
p381
sVurl
p382
Vhttps://api.github.com/repos/RestExpress/RestExpress-Scaffold
p383
sVcreated_at
p384
V2012-07-26T23:42:19Z
p385
sVpushed_at
p386
V2014-01-27T04:59:12Z
p387
sVforks_count
p388
I3
sVdefault_branch
p389
Vmaster
p390
sVteams_url
p391
Vhttps://api.github.com/repos/RestExpress/RestExpress-Scaffold/teams
p392
sVtrees_url
p393
Vhttps://api.github.com/repos/RestExpress/RestExpress-Scaffold/git/trees{/sha}
p394
sVbranches_url
p395
Vhttps://api.github.com/repos/RestExpress/RestExpress-Scaffold/branches{/branch}
p396
sVsubscribers_url
p397
Vhttps://api.github.com/repos/RestExpress/RestExpress-Scaffold/subscribers
p398
sVstargazers_url
p399
Vhttps://api.github.com/repos/RestExpress/RestExpress-Scaffold/stargazers
p400
ssVarchive_url
p401
Vhttps://api.github.com/repos/kevwil/RestExpress-Scaffold/{archive_format}{/ref}
p402
sVcomments_url
p403
Vhttps://api.github.com/repos/kevwil/RestExpress-Scaffold/comments{/number}
p404
sVevents_url
p405
Vhttps://api.github.com/repos/kevwil/RestExpress-Scaffold/events
p406
sVcontributors_url
p407
Vhttps://api.github.com/repos/kevwil/RestExpress-Scaffold/contributors
p408
sVhtml_url
p409
Vhttps://github.com/kevwil/RestExpress-Scaffold
p410
sVforks
p411
I0
sVcompare_url
p412
Vhttps://api.github.com/repos/kevwil/RestExpress-Scaffold/compare/{base}...{head}
p413
sVopen_issues
p414
I0
sVgit_url
p415
Vgit://github.com/kevwil/RestExpress-Scaffold.git
p416
sVsvn_url
p417
Vhttps://github.com/kevwil/RestExpress-Scaffold
p418
sVmerges_url
p419
Vhttps://api.github.com/repos/kevwil/RestExpress-Scaffold/merges
p420
sVhas_issues
p421
I00
sVssh_url
p422
Vgit@github.com:kevwil/RestExpress-Scaffold.git
p423
sVblobs_url
p424
Vhttps://api.github.com/repos/kevwil/RestExpress-Scaffold/git/blobs{/sha}
p425
sVmaster_branch
p426
Vmaster
p427
sVgit_commits_url
p428
Vhttps://api.github.com/repos/kevwil/RestExpress-Scaffold/git/commits{/sha}
p429
sVhooks_url
p430
Vhttps://api.github.com/repos/kevwil/RestExpress-Scaffold/hooks
p431
sVhas_downloads
p432
I01
sVwatchers
p433
I0
sVname
p434
VRestExpress-Scaffold
p435
sVlanguage
p436
VJava
p437
sVurl
p438
Vhttps://api.github.com/repos/kevwil/RestExpress-Scaffold
p439
sVcreated_at
p440
V2013-06-12T15:52:06Z
p441
sVpushed_at
p442
V2013-06-12T15:54:27Z
p443
sVforks_count
p444
I0
sVdefault_branch
p445
Vmaster
p446
sVteams_url
p447
Vhttps://api.github.com/repos/kevwil/RestExpress-Scaffold/teams
p448
sVtrees_url
p449
Vhttps://api.github.com/repos/kevwil/RestExpress-Scaffold/git/trees{/sha}
p450
sVbranches_url
p451
Vhttps://api.github.com/repos/kevwil/RestExpress-Scaffold/branches{/branch}
p452
sVsubscribers_url
p453
Vhttps://api.github.com/repos/kevwil/RestExpress-Scaffold/subscribers
p454
sVstargazers_url
p455
Vhttps://api.github.com/repos/kevwil/RestExpress-Scaffold/stargazers
p456
s.