(lp0
(dp1
Vissues_url
p2
Vhttps://api.github.com/repos/cristibalan/.vim/issues{/number}
p3
sVstargazers_count
p4
I3
sVforks_url
p5
Vhttps://api.github.com/repos/cristibalan/.vim/forks
p6
sVmirror_url
p7
NsVsubscription_url
p8
Vhttps://api.github.com/repos/cristibalan/.vim/subscription
p9
sVnotifications_url
p10
Vhttps://api.github.com/repos/cristibalan/.vim/notifications{?since,all,participating}
p11
sVcollaborators_url
p12
Vhttps://api.github.com/repos/cristibalan/.vim/collaborators{/collaborator}
p13
sVupdated_at
p14
V2013-10-28T02:48:04Z
p15
sVprivate
p16
I00
sVpulls_url
p17
Vhttps://api.github.com/repos/cristibalan/.vim/pulls{/number}
p18
sVissue_comment_url
p19
Vhttps://api.github.com/repos/cristibalan/.vim/issues/comments/{number}
p20
sVlabels_url
p21
Vhttps://api.github.com/repos/cristibalan/.vim/labels{/name}
p22
sVhas_wiki
p23
I01
sVfull_name
p24
Vcristibalan/.vim
p25
sVowner
p26
(dp27
Vfollowing_url
p28
Vhttps://api.github.com/users/cristibalan/following{/other_user}
p29
sVevents_url
p30
Vhttps://api.github.com/users/cristibalan/events{/privacy}
p31
sVorganizations_url
p32
Vhttps://api.github.com/users/cristibalan/orgs
p33
sVurl
p34
Vhttps://api.github.com/users/cristibalan
p35
sVgists_url
p36
Vhttps://api.github.com/users/cristibalan/gists{/gist_id}
p37
sVhtml_url
p38
Vhttps://github.com/cristibalan
p39
sVsubscriptions_url
p40
Vhttps://api.github.com/users/cristibalan/subscriptions
p41
sVavatar_url
p42
Vhttps://gravatar.com/avatar/0e8c5f8d88cfc1aeeb59acdcc8aad387?d=https%3A%2F%2Fidenticons.github.com%2Fa0a080f42e6f13b3a2df133f073095dd.png&r=x
p43
sVrepos_url
p44
Vhttps://api.github.com/users/cristibalan/repos
p45
sVreceived_events_url
p46
Vhttps://api.github.com/users/cristibalan/received_events
p47
sVgravatar_id
p48
V0e8c5f8d88cfc1aeeb59acdcc8aad387
p49
sVstarred_url
p50
Vhttps://api.github.com/users/cristibalan/starred{/owner}{/repo}
p51
sVsite_admin
p52
I00
sVlogin
p53
Vcristibalan
p54
sVtype
p55
VUser
p56
sVid
p57
I122
sVfollowers_url
p58
Vhttps://api.github.com/users/cristibalan/followers
p59
ssVstatuses_url
p60
Vhttps://api.github.com/repos/cristibalan/.vim/statuses/{sha}
p61
sVid
p62
I635551
sVkeys_url
p63
Vhttps://api.github.com/repos/cristibalan/.vim/keys{/key_id}
p64
sVdescription
p65
V~/.vim
p66
sVtags_url
p67
Vhttps://api.github.com/repos/cristibalan/.vim/tags
p68
sVdownloads_url
p69
Vhttps://api.github.com/repos/cristibalan/.vim/downloads
p70
sVassignees_url
p71
Vhttps://api.github.com/repos/cristibalan/.vim/assignees{/user}
p72
sVcontents_url
p73
Vhttps://api.github.com/repos/cristibalan/.vim/contents/{+path}
p74
sVgit_refs_url
p75
Vhttps://api.github.com/repos/cristibalan/.vim/git/refs{/sha}
p76
sVopen_issues_count
p77
I0
sVclone_url
p78
Vhttps://github.com/cristibalan/.vim.git
p79
sVwatchers_count
p80
I3
sVgit_tags_url
p81
Vhttps://api.github.com/repos/cristibalan/.vim/git/tags{/sha}
p82
sVmilestones_url
p83
Vhttps://api.github.com/repos/cristibalan/.vim/milestones{/number}
p84
sVlanguages_url
p85
Vhttps://api.github.com/repos/cristibalan/.vim/languages
p86
sVsize
p87
I372
sVhomepage
p88
V
p89
sVfork
p90
I00
sVcommits_url
p91
Vhttps://api.github.com/repos/cristibalan/.vim/commits{/sha}
p92
sVreleases_url
p93
Vhttps://api.github.com/repos/cristibalan/.vim/releases{/id}
p94
sVissue_events_url
p95
Vhttps://api.github.com/repos/cristibalan/.vim/issues/events{/number}
p96
sVarchive_url
p97
Vhttps://api.github.com/repos/cristibalan/.vim/{archive_format}{/ref}
p98
sVcomments_url
p99
Vhttps://api.github.com/repos/cristibalan/.vim/comments{/number}
p100
sVevents_url
p101
Vhttps://api.github.com/repos/cristibalan/.vim/events
p102
sVcontributors_url
p103
Vhttps://api.github.com/repos/cristibalan/.vim/contributors
p104
sVhtml_url
p105
Vhttps://github.com/cristibalan/.vim
p106
sVforks
p107
I1
sVcompare_url
p108
Vhttps://api.github.com/repos/cristibalan/.vim/compare/{base}...{head}
p109
sVopen_issues
p110
I0
sVgit_url
p111
Vgit://github.com/cristibalan/.vim.git
p112
sVsvn_url
p113
Vhttps://github.com/cristibalan/.vim
p114
sVmerges_url
p115
Vhttps://api.github.com/repos/cristibalan/.vim/merges
p116
sVhas_issues
p117
I01
sVssh_url
p118
Vgit@github.com:cristibalan/.vim.git
p119
sVblobs_url
p120
Vhttps://api.github.com/repos/cristibalan/.vim/git/blobs{/sha}
p121
sVmaster_branch
p122
Vmaster
p123
sVgit_commits_url
p124
Vhttps://api.github.com/repos/cristibalan/.vim/git/commits{/sha}
p125
sVhooks_url
p126
Vhttps://api.github.com/repos/cristibalan/.vim/hooks
p127
sVhas_downloads
p128
I01
sVwatchers
p129
I3
sVname
p130
V.vim
p131
sVlanguage
p132
VVimL
p133
sVurl
p134
Vhttps://api.github.com/repos/cristibalan/.vim
p135
sVcreated_at
p136
V2010-04-28T23:29:56Z
p137
sVpushed_at
p138
V2013-10-27T14:47:32Z
p139
sVforks_count
p140
I1
sVdefault_branch
p141
Vmaster
p142
sVteams_url
p143
Vhttps://api.github.com/repos/cristibalan/.vim/teams
p144
sVtrees_url
p145
Vhttps://api.github.com/repos/cristibalan/.vim/git/trees{/sha}
p146
sVbranches_url
p147
Vhttps://api.github.com/repos/cristibalan/.vim/branches{/branch}
p148
sVsubscribers_url
p149
Vhttps://api.github.com/repos/cristibalan/.vim/subscribers
p150
sVstargazers_url
p151
Vhttps://api.github.com/repos/cristibalan/.vim/stargazers
p152
sa(dp153
Vissues_url
p154
Vhttps://api.github.com/repos/cristibalan/asset_auto_include/issues{/number}
p155
sVstargazers_count
p156
I9
sVforks_url
p157
Vhttps://api.github.com/repos/cristibalan/asset_auto_include/forks
p158
sVmirror_url
p159
NsVsubscription_url
p160
Vhttps://api.github.com/repos/cristibalan/asset_auto_include/subscription
p161
sVnotifications_url
p162
Vhttps://api.github.com/repos/cristibalan/asset_auto_include/notifications{?since,all,participating}
p163
sVcollaborators_url
p164
Vhttps://api.github.com/repos/cristibalan/asset_auto_include/collaborators{/collaborator}
p165
sVupdated_at
p166
V2013-11-03T09:15:30Z
p167
sVprivate
p168
I00
sVpulls_url
p169
Vhttps://api.github.com/repos/cristibalan/asset_auto_include/pulls{/number}
p170
sVissue_comment_url
p171
Vhttps://api.github.com/repos/cristibalan/asset_auto_include/issues/comments/{number}
p172
sVlabels_url
p173
Vhttps://api.github.com/repos/cristibalan/asset_auto_include/labels{/name}
p174
sVhas_wiki
p175
I01
sVfull_name
p176
Vcristibalan/asset_auto_include
p177
sVowner
p178
(dp179
Vfollowing_url
p180
Vhttps://api.github.com/users/cristibalan/following{/other_user}
p181
sVevents_url
p182
Vhttps://api.github.com/users/cristibalan/events{/privacy}
p183
sVorganizations_url
p184
Vhttps://api.github.com/users/cristibalan/orgs
p185
sVurl
p186
Vhttps://api.github.com/users/cristibalan
p187
sVgists_url
p188
Vhttps://api.github.com/users/cristibalan/gists{/gist_id}
p189
sVhtml_url
p190
Vhttps://github.com/cristibalan
p191
sVsubscriptions_url
p192
Vhttps://api.github.com/users/cristibalan/subscriptions
p193
sVavatar_url
p194
Vhttps://gravatar.com/avatar/0e8c5f8d88cfc1aeeb59acdcc8aad387?d=https%3A%2F%2Fidenticons.github.com%2Fa0a080f42e6f13b3a2df133f073095dd.png&r=x
p195
sVrepos_url
p196
Vhttps://api.github.com/users/cristibalan/repos
p197
sVreceived_events_url
p198
Vhttps://api.github.com/users/cristibalan/received_events
p199
sVgravatar_id
p200
V0e8c5f8d88cfc1aeeb59acdcc8aad387
p201
sVstarred_url
p202
Vhttps://api.github.com/users/cristibalan/starred{/owner}{/repo}
p203
sVsite_admin
p204
I00
sVlogin
p205
Vcristibalan
p206
sVtype
p207
VUser
p208
sVid
p209
I122
sVfollowers_url
p210
Vhttps://api.github.com/users/cristibalan/followers
p211
ssVstatuses_url
p212
Vhttps://api.github.com/repos/cristibalan/asset_auto_include/statuses/{sha}
p213
sVid
p214
I20196
sVkeys_url
p215
Vhttps://api.github.com/repos/cristibalan/asset_auto_include/keys{/key_id}
p216
sVdescription
p217
VBased on the javascript_auto_include_plugin but allows to include all sorts of things, not just js
p218
sVtags_url
p219
Vhttps://api.github.com/repos/cristibalan/asset_auto_include/tags
p220
sVdownloads_url
p221
Vhttps://api.github.com/repos/cristibalan/asset_auto_include/downloads
p222
sVassignees_url
p223
Vhttps://api.github.com/repos/cristibalan/asset_auto_include/assignees{/user}
p224
sVcontents_url
p225
Vhttps://api.github.com/repos/cristibalan/asset_auto_include/contents/{+path}
p226
sVgit_refs_url
p227
Vhttps://api.github.com/repos/cristibalan/asset_auto_include/git/refs{/sha}
p228
sVopen_issues_count
p229
I0
sVclone_url
p230
Vhttps://github.com/cristibalan/asset_auto_include.git
p231
sVwatchers_count
p232
I9
sVgit_tags_url
p233
Vhttps://api.github.com/repos/cristibalan/asset_auto_include/git/tags{/sha}
p234
sVmilestones_url
p235
Vhttps://api.github.com/repos/cristibalan/asset_auto_include/milestones{/number}
p236
sVlanguages_url
p237
Vhttps://api.github.com/repos/cristibalan/asset_auto_include/languages
p238
sVsize
p239
I98
sVhomepage
p240
Vhttp://evil.che.lu/
p241
sVfork
p242
I00
sVcommits_url
p243
Vhttps://api.github.com/repos/cristibalan/asset_auto_include/commits{/sha}
p244
sVreleases_url
p245
Vhttps://api.github.com/repos/cristibalan/asset_auto_include/releases{/id}
p246
sVissue_events_url
p247
Vhttps://api.github.com/repos/cristibalan/asset_auto_include/issues/events{/number}
p248
sVarchive_url
p249
Vhttps://api.github.com/repos/cristibalan/asset_auto_include/{archive_format}{/ref}
p250
sVcomments_url
p251
Vhttps://api.github.com/repos/cristibalan/asset_auto_include/comments{/number}
p252
sVevents_url
p253
Vhttps://api.github.com/repos/cristibalan/asset_auto_include/events
p254
sVcontributors_url
p255
Vhttps://api.github.com/repos/cristibalan/asset_auto_include/contributors
p256
sVhtml_url
p257
Vhttps://github.com/cristibalan/asset_auto_include
p258
sVforks
p259
I1
sVcompare_url
p260
Vhttps://api.github.com/repos/cristibalan/asset_auto_include/compare/{base}...{head}
p261
sVopen_issues
p262
I0
sVgit_url
p263
Vgit://github.com/cristibalan/asset_auto_include.git
p264
sVsvn_url
p265
Vhttps://github.com/cristibalan/asset_auto_include
p266
sVmerges_url
p267
Vhttps://api.github.com/repos/cristibalan/asset_auto_include/merges
p268
sVhas_issues
p269
I01
sVssh_url
p270
Vgit@github.com:cristibalan/asset_auto_include.git
p271
sVblobs_url
p272
Vhttps://api.github.com/repos/cristibalan/asset_auto_include/git/blobs{/sha}
p273
sVmaster_branch
p274
Vmaster
p275
sVgit_commits_url
p276
Vhttps://api.github.com/repos/cristibalan/asset_auto_include/git/commits{/sha}
p277
sVhooks_url
p278
Vhttps://api.github.com/repos/cristibalan/asset_auto_include/hooks
p279
sVhas_downloads
p280
I01
sVwatchers
p281
I9
sVname
p282
Vasset_auto_include
p283
sVlanguage
p284
VRuby
p285
sVurl
p286
Vhttps://api.github.com/repos/cristibalan/asset_auto_include
p287
sVcreated_at
p288
V2008-05-28T12:49:20Z
p289
sVpushed_at
p290
V2009-11-29T11:47:08Z
p291
sVforks_count
p292
I1
sVdefault_branch
p293
Vmaster
p294
sVteams_url
p295
Vhttps://api.github.com/repos/cristibalan/asset_auto_include/teams
p296
sVtrees_url
p297
Vhttps://api.github.com/repos/cristibalan/asset_auto_include/git/trees{/sha}
p298
sVbranches_url
p299
Vhttps://api.github.com/repos/cristibalan/asset_auto_include/branches{/branch}
p300
sVsubscribers_url
p301
Vhttps://api.github.com/repos/cristibalan/asset_auto_include/subscribers
p302
sVstargazers_url
p303
Vhttps://api.github.com/repos/cristibalan/asset_auto_include/stargazers
p304
sa(dp305
Vissues_url
p306
Vhttps://api.github.com/repos/cristibalan/braid/issues{/number}
p307
sVstargazers_count
p308
I350
sVforks_url
p309
Vhttps://api.github.com/repos/cristibalan/braid/forks
p310
sVmirror_url
p311
NsVsubscription_url
p312
Vhttps://api.github.com/repos/cristibalan/braid/subscription
p313
sVnotifications_url
p314
Vhttps://api.github.com/repos/cristibalan/braid/notifications{?since,all,participating}
p315
sVcollaborators_url
p316
Vhttps://api.github.com/repos/cristibalan/braid/collaborators{/collaborator}
p317
sVupdated_at
p318
V2014-01-04T13:16:44Z
p319
sVprivate
p320
I00
sVpulls_url
p321
Vhttps://api.github.com/repos/cristibalan/braid/pulls{/number}
p322
sVissue_comment_url
p323
Vhttps://api.github.com/repos/cristibalan/braid/issues/comments/{number}
p324
sVlabels_url
p325
Vhttps://api.github.com/repos/cristibalan/braid/labels{/name}
p326
sVhas_wiki
p327
I01
sVfull_name
p328
Vcristibalan/braid
p329
sVowner
p330
(dp331
Vfollowing_url
p332
Vhttps://api.github.com/users/cristibalan/following{/other_user}
p333
sVevents_url
p334
Vhttps://api.github.com/users/cristibalan/events{/privacy}
p335
sVorganizations_url
p336
Vhttps://api.github.com/users/cristibalan/orgs
p337
sVurl
p338
Vhttps://api.github.com/users/cristibalan
p339
sVgists_url
p340
Vhttps://api.github.com/users/cristibalan/gists{/gist_id}
p341
sVhtml_url
p342
Vhttps://github.com/cristibalan
p343
sVsubscriptions_url
p344
Vhttps://api.github.com/users/cristibalan/subscriptions
p345
sVavatar_url
p346
Vhttps://gravatar.com/avatar/0e8c5f8d88cfc1aeeb59acdcc8aad387?d=https%3A%2F%2Fidenticons.github.com%2Fa0a080f42e6f13b3a2df133f073095dd.png&r=x
p347
sVrepos_url
p348
Vhttps://api.github.com/users/cristibalan/repos
p349
sVreceived_events_url
p350
Vhttps://api.github.com/users/cristibalan/received_events
p351
sVgravatar_id
p352
V0e8c5f8d88cfc1aeeb59acdcc8aad387
p353
sVstarred_url
p354
Vhttps://api.github.com/users/cristibalan/starred{/owner}{/repo}
p355
sVsite_admin
p356
I00
sVlogin
p357
Vcristibalan
p358
sVtype
p359
VUser
p360
sVid
p361
I122
sVfollowers_url
p362
Vhttps://api.github.com/users/cristibalan/followers
p363
ssVstatuses_url
p364
Vhttps://api.github.com/repos/cristibalan/braid/statuses/{sha}
p365
sVid
p366
I249
sVkeys_url
p367
Vhttps://api.github.com/repos/cristibalan/braid/keys{/key_id}
p368
sVdescription
p369
VSimple tool to help track git and svn vendor branches in a git repository
p370
sVtags_url
p371
Vhttps://api.github.com/repos/cristibalan/braid/tags
p372
sVdownloads_url
p373
Vhttps://api.github.com/repos/cristibalan/braid/downloads
p374
sVassignees_url
p375
Vhttps://api.github.com/repos/cristibalan/braid/assignees{/user}
p376
sVcontents_url
p377
Vhttps://api.github.com/repos/cristibalan/braid/contents/{+path}
p378
sVgit_refs_url
p379
Vhttps://api.github.com/repos/cristibalan/braid/git/refs{/sha}
p380
sVopen_issues_count
p381
I9
sVclone_url
p382
Vhttps://github.com/cristibalan/braid.git
p383
sVwatchers_count
p384
I350
sVgit_tags_url
p385
Vhttps://api.github.com/repos/cristibalan/braid/git/tags{/sha}
p386
sVmilestones_url
p387
Vhttps://api.github.com/repos/cristibalan/braid/milestones{/number}
p388
sVlanguages_url
p389
Vhttps://api.github.com/repos/cristibalan/braid/languages
p390
sVsize
p391
I1779
sVhomepage
p392
Vhttp://github.com/evilchelu/braid/wikis/home
p393
sVfork
p394
I00
sVcommits_url
p395
Vhttps://api.github.com/repos/cristibalan/braid/commits{/sha}
p396
sVreleases_url
p397
Vhttps://api.github.com/repos/cristibalan/braid/releases{/id}
p398
sVissue_events_url
p399
Vhttps://api.github.com/repos/cristibalan/braid/issues/events{/number}
p400
sVarchive_url
p401
Vhttps://api.github.com/repos/cristibalan/braid/{archive_format}{/ref}
p402
sVcomments_url
p403
Vhttps://api.github.com/repos/cristibalan/braid/comments{/number}
p404
sVevents_url
p405
Vhttps://api.github.com/repos/cristibalan/braid/events
p406
sVcontributors_url
p407
Vhttps://api.github.com/repos/cristibalan/braid/contributors
p408
sVhtml_url
p409
Vhttps://github.com/cristibalan/braid
p410
sVforks
p411
I27
sVcompare_url
p412
Vhttps://api.github.com/repos/cristibalan/braid/compare/{base}...{head}
p413
sVopen_issues
p414
I9
sVgit_url
p415
Vgit://github.com/cristibalan/braid.git
p416
sVsvn_url
p417
Vhttps://github.com/cristibalan/braid
p418
sVmerges_url
p419
Vhttps://api.github.com/repos/cristibalan/braid/merges
p420
sVhas_issues
p421
I01
sVssh_url
p422
Vgit@github.com:cristibalan/braid.git
p423
sVblobs_url
p424
Vhttps://api.github.com/repos/cristibalan/braid/git/blobs{/sha}
p425
sVmaster_branch
p426
Vmaster
p427
sVgit_commits_url
p428
Vhttps://api.github.com/repos/cristibalan/braid/git/commits{/sha}
p429
sVhooks_url
p430
Vhttps://api.github.com/repos/cristibalan/braid/hooks
p431
sVhas_downloads
p432
I01
sVwatchers
p433
I350
sVname
p434
Vbraid
p435
sVlanguage
p436
VRuby
p437
sVurl
p438
Vhttps://api.github.com/repos/cristibalan/braid
p439
sVcreated_at
p440
V2008-02-03T21:14:46Z
p441
sVpushed_at
p442
V2013-08-07T14:41:28Z
p443
sVforks_count
p444
I27
sVdefault_branch
p445
Vmaster
p446
sVteams_url
p447
Vhttps://api.github.com/repos/cristibalan/braid/teams
p448
sVtrees_url
p449
Vhttps://api.github.com/repos/cristibalan/braid/git/trees{/sha}
p450
sVbranches_url
p451
Vhttps://api.github.com/repos/cristibalan/braid/branches{/branch}
p452
sVsubscribers_url
p453
Vhttps://api.github.com/repos/cristibalan/braid/subscribers
p454
sVstargazers_url
p455
Vhttps://api.github.com/repos/cristibalan/braid/stargazers
p456
sa(dp457
Vissues_url
p458
Vhttps://api.github.com/repos/cristibalan/dotfiles/issues{/number}
p459
sVstargazers_count
p460
I9
sVforks_url
p461
Vhttps://api.github.com/repos/cristibalan/dotfiles/forks
p462
sVmirror_url
p463
NsVsubscription_url
p464
Vhttps://api.github.com/repos/cristibalan/dotfiles/subscription
p465
sVnotifications_url
p466
Vhttps://api.github.com/repos/cristibalan/dotfiles/notifications{?since,all,participating}
p467
sVcollaborators_url
p468
Vhttps://api.github.com/repos/cristibalan/dotfiles/collaborators{/collaborator}
p469
sVupdated_at
p470
V2014-01-11T22:11:02Z
p471
sVprivate
p472
I00
sVpulls_url
p473
Vhttps://api.github.com/repos/cristibalan/dotfiles/pulls{/number}
p474
sVissue_comment_url
p475
Vhttps://api.github.com/repos/cristibalan/dotfiles/issues/comments/{number}
p476
sVlabels_url
p477
Vhttps://api.github.com/repos/cristibalan/dotfiles/labels{/name}
p478
sVhas_wiki
p479
I01
sVfull_name
p480
Vcristibalan/dotfiles
p481
sVowner
p482
(dp483
Vfollowing_url
p484
Vhttps://api.github.com/users/cristibalan/following{/other_user}
p485
sVevents_url
p486
Vhttps://api.github.com/users/cristibalan/events{/privacy}
p487
sVorganizations_url
p488
Vhttps://api.github.com/users/cristibalan/orgs
p489
sVurl
p490
Vhttps://api.github.com/users/cristibalan
p491
sVgists_url
p492
Vhttps://api.github.com/users/cristibalan/gists{/gist_id}
p493
sVhtml_url
p494
Vhttps://github.com/cristibalan
p495
sVsubscriptions_url
p496
Vhttps://api.github.com/users/cristibalan/subscriptions
p497
sVavatar_url
p498
Vhttps://gravatar.com/avatar/0e8c5f8d88cfc1aeeb59acdcc8aad387?d=https%3A%2F%2Fidenticons.github.com%2Fa0a080f42e6f13b3a2df133f073095dd.png&r=x
p499
sVrepos_url
p500
Vhttps://api.github.com/users/cristibalan/repos
p501
sVreceived_events_url
p502
Vhttps://api.github.com/users/cristibalan/received_events
p503
sVgravatar_id
p504
V0e8c5f8d88cfc1aeeb59acdcc8aad387
p505
sVstarred_url
p506
Vhttps://api.github.com/users/cristibalan/starred{/owner}{/repo}
p507
sVsite_admin
p508
I00
sVlogin
p509
Vcristibalan
p510
sVtype
p511
VUser
p512
sVid
p513
I122
sVfollowers_url
p514
Vhttps://api.github.com/users/cristibalan/followers
p515
ssVstatuses_url
p516
Vhttps://api.github.com/repos/cristibalan/dotfiles/statuses/{sha}
p517
sVid
p518
I17996
sVkeys_url
p519
Vhttps://api.github.com/repos/cristibalan/dotfiles/keys{/key_id}
p520
sVdescription
p521
Vdotfiles
p522
sVtags_url
p523
Vhttps://api.github.com/repos/cristibalan/dotfiles/tags
p524
sVdownloads_url
p525
Vhttps://api.github.com/repos/cristibalan/dotfiles/downloads
p526
sVassignees_url
p527
Vhttps://api.github.com/repos/cristibalan/dotfiles/assignees{/user}
p528
sVcontents_url
p529
Vhttps://api.github.com/repos/cristibalan/dotfiles/contents/{+path}
p530
sVgit_refs_url
p531
Vhttps://api.github.com/repos/cristibalan/dotfiles/git/refs{/sha}
p532
sVopen_issues_count
p533
I1
sVclone_url
p534
Vhttps://github.com/cristibalan/dotfiles.git
p535
sVwatchers_count
p536
I9
sVgit_tags_url
p537
Vhttps://api.github.com/repos/cristibalan/dotfiles/git/tags{/sha}
p538
sVmilestones_url
p539
Vhttps://api.github.com/repos/cristibalan/dotfiles/milestones{/number}
p540
sVlanguages_url
p541
Vhttps://api.github.com/repos/cristibalan/dotfiles/languages
p542
sVsize
p543
I895
sVhomepage
p544
Vhttp://evil.che.lu
p545
sVfork
p546
I00
sVcommits_url
p547
Vhttps://api.github.com/repos/cristibalan/dotfiles/commits{/sha}
p548
sVreleases_url
p549
Vhttps://api.github.com/repos/cristibalan/dotfiles/releases{/id}
p550
sVissue_events_url
p551
Vhttps://api.github.com/repos/cristibalan/dotfiles/issues/events{/number}
p552
sVarchive_url
p553
Vhttps://api.github.com/repos/cristibalan/dotfiles/{archive_format}{/ref}
p554
sVcomments_url
p555
Vhttps://api.github.com/repos/cristibalan/dotfiles/comments{/number}
p556
sVevents_url
p557
Vhttps://api.github.com/repos/cristibalan/dotfiles/events
p558
sVcontributors_url
p559
Vhttps://api.github.com/repos/cristibalan/dotfiles/contributors
p560
sVhtml_url
p561
Vhttps://github.com/cristibalan/dotfiles
p562
sVforks
p563
I2
sVcompare_url
p564
Vhttps://api.github.com/repos/cristibalan/dotfiles/compare/{base}...{head}
p565
sVopen_issues
p566
I1
sVgit_url
p567
Vgit://github.com/cristibalan/dotfiles.git
p568
sVsvn_url
p569
Vhttps://github.com/cristibalan/dotfiles
p570
sVmerges_url
p571
Vhttps://api.github.com/repos/cristibalan/dotfiles/merges
p572
sVhas_issues
p573
I01
sVssh_url
p574
Vgit@github.com:cristibalan/dotfiles.git
p575
sVblobs_url
p576
Vhttps://api.github.com/repos/cristibalan/dotfiles/git/blobs{/sha}
p577
sVmaster_branch
p578
Vmaster
p579
sVgit_commits_url
p580
Vhttps://api.github.com/repos/cristibalan/dotfiles/git/commits{/sha}
p581
sVhooks_url
p582
Vhttps://api.github.com/repos/cristibalan/dotfiles/hooks
p583
sVhas_downloads
p584
I01
sVwatchers
p585
I9
sVname
p586
Vdotfiles
p587
sVlanguage
p588
VJavaScript
p589
sVurl
p590
Vhttps://api.github.com/repos/cristibalan/dotfiles
p591
sVcreated_at
p592
V2008-05-19T11:24:48Z
p593
sVpushed_at
p594
V2013-10-28T01:58:16Z
p595
sVforks_count
p596
I2
sVdefault_branch
p597
Vmaster
p598
sVteams_url
p599
Vhttps://api.github.com/repos/cristibalan/dotfiles/teams
p600
sVtrees_url
p601
Vhttps://api.github.com/repos/cristibalan/dotfiles/git/trees{/sha}
p602
sVbranches_url
p603
Vhttps://api.github.com/repos/cristibalan/dotfiles/branches{/branch}
p604
sVsubscribers_url
p605
Vhttps://api.github.com/repos/cristibalan/dotfiles/subscribers
p606
sVstargazers_url
p607
Vhttps://api.github.com/repos/cristibalan/dotfiles/stargazers
p608
sa(dp609
Vissues_url
p610
Vhttps://api.github.com/repos/cristibalan/evil.che.lu/issues{/number}
p611
sVstargazers_count
p612
I1
sVforks_url
p613
Vhttps://api.github.com/repos/cristibalan/evil.che.lu/forks
p614
sVmirror_url
p615
NsVsubscription_url
p616
Vhttps://api.github.com/repos/cristibalan/evil.che.lu/subscription
p617
sVnotifications_url
p618
Vhttps://api.github.com/repos/cristibalan/evil.che.lu/notifications{?since,all,participating}
p619
sVcollaborators_url
p620
Vhttps://api.github.com/repos/cristibalan/evil.che.lu/collaborators{/collaborator}
p621
sVupdated_at
p622
V2013-11-04T11:30:51Z
p623
sVprivate
p624
I00
sVpulls_url
p625
Vhttps://api.github.com/repos/cristibalan/evil.che.lu/pulls{/number}
p626
sVissue_comment_url
p627
Vhttps://api.github.com/repos/cristibalan/evil.che.lu/issues/comments/{number}
p628
sVlabels_url
p629
Vhttps://api.github.com/repos/cristibalan/evil.che.lu/labels{/name}
p630
sVhas_wiki
p631
I01
sVfull_name
p632
Vcristibalan/evil.che.lu
p633
sVowner
p634
(dp635
Vfollowing_url
p636
Vhttps://api.github.com/users/cristibalan/following{/other_user}
p637
sVevents_url
p638
Vhttps://api.github.com/users/cristibalan/events{/privacy}
p639
sVorganizations_url
p640
Vhttps://api.github.com/users/cristibalan/orgs
p641
sVurl
p642
Vhttps://api.github.com/users/cristibalan
p643
sVgists_url
p644
Vhttps://api.github.com/users/cristibalan/gists{/gist_id}
p645
sVhtml_url
p646
Vhttps://github.com/cristibalan
p647
sVsubscriptions_url
p648
Vhttps://api.github.com/users/cristibalan/subscriptions
p649
sVavatar_url
p650
Vhttps://gravatar.com/avatar/0e8c5f8d88cfc1aeeb59acdcc8aad387?d=https%3A%2F%2Fidenticons.github.com%2Fa0a080f42e6f13b3a2df133f073095dd.png&r=x
p651
sVrepos_url
p652
Vhttps://api.github.com/users/cristibalan/repos
p653
sVreceived_events_url
p654
Vhttps://api.github.com/users/cristibalan/received_events
p655
sVgravatar_id
p656
V0e8c5f8d88cfc1aeeb59acdcc8aad387
p657
sVstarred_url
p658
Vhttps://api.github.com/users/cristibalan/starred{/owner}{/repo}
p659
sVsite_admin
p660
I00
sVlogin
p661
Vcristibalan
p662
sVtype
p663
VUser
p664
sVid
p665
I122
sVfollowers_url
p666
Vhttps://api.github.com/users/cristibalan/followers
p667
ssVstatuses_url
p668
Vhttps://api.github.com/repos/cristibalan/evil.che.lu/statuses/{sha}
p669
sVid
p670
I123478
sVkeys_url
p671
Vhttps://api.github.com/repos/cristibalan/evil.che.lu/keys{/key_id}
p672
sVdescription
p673
Vevil.che.lu - fluffy_barbarian source
p674
sVtags_url
p675
Vhttps://api.github.com/repos/cristibalan/evil.che.lu/tags
p676
sVdownloads_url
p677
Vhttps://api.github.com/repos/cristibalan/evil.che.lu/downloads
p678
sVassignees_url
p679
Vhttps://api.github.com/repos/cristibalan/evil.che.lu/assignees{/user}
p680
sVcontents_url
p681
Vhttps://api.github.com/repos/cristibalan/evil.che.lu/contents/{+path}
p682
sVgit_refs_url
p683
Vhttps://api.github.com/repos/cristibalan/evil.che.lu/git/refs{/sha}
p684
sVopen_issues_count
p685
I0
sVclone_url
p686
Vhttps://github.com/cristibalan/evil.che.lu.git
p687
sVwatchers_count
p688
I1
sVgit_tags_url
p689
Vhttps://api.github.com/repos/cristibalan/evil.che.lu/git/tags{/sha}
p690
sVmilestones_url
p691
Vhttps://api.github.com/repos/cristibalan/evil.che.lu/milestones{/number}
p692
sVlanguages_url
p693
Vhttps://api.github.com/repos/cristibalan/evil.che.lu/languages
p694
sVsize
p695
I224
sVhomepage
p696
Vhttp://evil.che.lu
p697
sVfork
p698
I00
sVcommits_url
p699
Vhttps://api.github.com/repos/cristibalan/evil.che.lu/commits{/sha}
p700
sVreleases_url
p701
Vhttps://api.github.com/repos/cristibalan/evil.che.lu/releases{/id}
p702
sVissue_events_url
p703
Vhttps://api.github.com/repos/cristibalan/evil.che.lu/issues/events{/number}
p704
sVarchive_url
p705
Vhttps://api.github.com/repos/cristibalan/evil.che.lu/{archive_format}{/ref}
p706
sVcomments_url
p707
Vhttps://api.github.com/repos/cristibalan/evil.che.lu/comments{/number}
p708
sVevents_url
p709
Vhttps://api.github.com/repos/cristibalan/evil.che.lu/events
p710
sVcontributors_url
p711
Vhttps://api.github.com/repos/cristibalan/evil.che.lu/contributors
p712
sVhtml_url
p713
Vhttps://github.com/cristibalan/evil.che.lu
p714
sVforks
p715
I0
sVcompare_url
p716
Vhttps://api.github.com/repos/cristibalan/evil.che.lu/compare/{base}...{head}
p717
sVopen_issues
p718
I0
sVgit_url
p719
Vgit://github.com/cristibalan/evil.che.lu.git
p720
sVsvn_url
p721
Vhttps://github.com/cristibalan/evil.che.lu
p722
sVmerges_url
p723
Vhttps://api.github.com/repos/cristibalan/evil.che.lu/merges
p724
sVhas_issues
p725
I01
sVssh_url
p726
Vgit@github.com:cristibalan/evil.che.lu.git
p727
sVblobs_url
p728
Vhttps://api.github.com/repos/cristibalan/evil.che.lu/git/blobs{/sha}
p729
sVmaster_branch
p730
Vmaster
p731
sVgit_commits_url
p732
Vhttps://api.github.com/repos/cristibalan/evil.che.lu/git/commits{/sha}
p733
sVhooks_url
p734
Vhttps://api.github.com/repos/cristibalan/evil.che.lu/hooks
p735
sVhas_downloads
p736
I01
sVwatchers
p737
I1
sVname
p738
Vevil.che.lu
p739
sVlanguage
p740
VJavaScript
p741
sVurl
p742
Vhttps://api.github.com/repos/cristibalan/evil.che.lu
p743
sVcreated_at
p744
V2009-02-07T01:00:59Z
p745
sVpushed_at
p746
V2010-11-07T03:17:51Z
p747
sVforks_count
p748
I0
sVdefault_branch
p749
Vmaster
p750
sVteams_url
p751
Vhttps://api.github.com/repos/cristibalan/evil.che.lu/teams
p752
sVtrees_url
p753
Vhttps://api.github.com/repos/cristibalan/evil.che.lu/git/trees{/sha}
p754
sVbranches_url
p755
Vhttps://api.github.com/repos/cristibalan/evil.che.lu/branches{/branch}
p756
sVsubscribers_url
p757
Vhttps://api.github.com/repos/cristibalan/evil.che.lu/subscribers
p758
sVstargazers_url
p759
Vhttps://api.github.com/repos/cristibalan/evil.che.lu/stargazers
p760
sa(dp761
Vissues_url
p762
Vhttps://api.github.com/repos/cristibalan/feedzinho/issues{/number}
p763
sVstargazers_count
p764
I1
sVforks_url
p765
Vhttps://api.github.com/repos/cristibalan/feedzinho/forks
p766
sVmirror_url
p767
NsVsubscription_url
p768
Vhttps://api.github.com/repos/cristibalan/feedzinho/subscription
p769
sVnotifications_url
p770
Vhttps://api.github.com/repos/cristibalan/feedzinho/notifications{?since,all,participating}
p771
sVcollaborators_url
p772
Vhttps://api.github.com/repos/cristibalan/feedzinho/collaborators{/collaborator}
p773
sVupdated_at
p774
V2013-12-22T11:36:51Z
p775
sVprivate
p776
I00
sVpulls_url
p777
Vhttps://api.github.com/repos/cristibalan/feedzinho/pulls{/number}
p778
sVissue_comment_url
p779
Vhttps://api.github.com/repos/cristibalan/feedzinho/issues/comments/{number}
p780
sVlabels_url
p781
Vhttps://api.github.com/repos/cristibalan/feedzinho/labels{/name}
p782
sVhas_wiki
p783
I01
sVfull_name
p784
Vcristibalan/feedzinho
p785
sVowner
p786
(dp787
Vfollowing_url
p788
Vhttps://api.github.com/users/cristibalan/following{/other_user}
p789
sVevents_url
p790
Vhttps://api.github.com/users/cristibalan/events{/privacy}
p791
sVorganizations_url
p792
Vhttps://api.github.com/users/cristibalan/orgs
p793
sVurl
p794
Vhttps://api.github.com/users/cristibalan
p795
sVgists_url
p796
Vhttps://api.github.com/users/cristibalan/gists{/gist_id}
p797
sVhtml_url
p798
Vhttps://github.com/cristibalan
p799
sVsubscriptions_url
p800
Vhttps://api.github.com/users/cristibalan/subscriptions
p801
sVavatar_url
p802
Vhttps://gravatar.com/avatar/0e8c5f8d88cfc1aeeb59acdcc8aad387?d=https%3A%2F%2Fidenticons.github.com%2Fa0a080f42e6f13b3a2df133f073095dd.png&r=x
p803
sVrepos_url
p804
Vhttps://api.github.com/users/cristibalan/repos
p805
sVreceived_events_url
p806
Vhttps://api.github.com/users/cristibalan/received_events
p807
sVgravatar_id
p808
V0e8c5f8d88cfc1aeeb59acdcc8aad387
p809
sVstarred_url
p810
Vhttps://api.github.com/users/cristibalan/starred{/owner}{/repo}
p811
sVsite_admin
p812
I00
sVlogin
p813
Vcristibalan
p814
sVtype
p815
VUser
p816
sVid
p817
I122
sVfollowers_url
p818
Vhttps://api.github.com/users/cristibalan/followers
p819
ssVstatuses_url
p820
Vhttps://api.github.com/repos/cristibalan/feedzinho/statuses/{sha}
p821
sVid
p822
I449813
sVkeys_url
p823
Vhttps://api.github.com/repos/cristibalan/feedzinho/keys{/key_id}
p824
sVdescription
p825
VA tiny feed reader for lolcats and githubz
p826
sVtags_url
p827
Vhttps://api.github.com/repos/cristibalan/feedzinho/tags
p828
sVdownloads_url
p829
Vhttps://api.github.com/repos/cristibalan/feedzinho/downloads
p830
sVassignees_url
p831
Vhttps://api.github.com/repos/cristibalan/feedzinho/assignees{/user}
p832
sVcontents_url
p833
Vhttps://api.github.com/repos/cristibalan/feedzinho/contents/{+path}
p834
sVgit_refs_url
p835
Vhttps://api.github.com/repos/cristibalan/feedzinho/git/refs{/sha}
p836
sVopen_issues_count
p837
I0
sVclone_url
p838
Vhttps://github.com/cristibalan/feedzinho.git
p839
sVwatchers_count
p840
I1
sVgit_tags_url
p841
Vhttps://api.github.com/repos/cristibalan/feedzinho/git/tags{/sha}
p842
sVmilestones_url
p843
Vhttps://api.github.com/repos/cristibalan/feedzinho/milestones{/number}
p844
sVlanguages_url
p845
Vhttps://api.github.com/repos/cristibalan/feedzinho/languages
p846
sVsize
p847
I76
sVhomepage
p848
Vhttp://mafeedz.che.lu
p849
sVfork
p850
I00
sVcommits_url
p851
Vhttps://api.github.com/repos/cristibalan/feedzinho/commits{/sha}
p852
sVreleases_url
p853
Vhttps://api.github.com/repos/cristibalan/feedzinho/releases{/id}
p854
sVissue_events_url
p855
Vhttps://api.github.com/repos/cristibalan/feedzinho/issues/events{/number}
p856
sVarchive_url
p857
Vhttps://api.github.com/repos/cristibalan/feedzinho/{archive_format}{/ref}
p858
sVcomments_url
p859
Vhttps://api.github.com/repos/cristibalan/feedzinho/comments{/number}
p860
sVevents_url
p861
Vhttps://api.github.com/repos/cristibalan/feedzinho/events
p862
sVcontributors_url
p863
Vhttps://api.github.com/repos/cristibalan/feedzinho/contributors
p864
sVhtml_url
p865
Vhttps://github.com/cristibalan/feedzinho
p866
sVforks
p867
I0
sVcompare_url
p868
Vhttps://api.github.com/repos/cristibalan/feedzinho/compare/{base}...{head}
p869
sVopen_issues
p870
I0
sVgit_url
p871
Vgit://github.com/cristibalan/feedzinho.git
p872
sVsvn_url
p873
Vhttps://github.com/cristibalan/feedzinho
p874
sVmerges_url
p875
Vhttps://api.github.com/repos/cristibalan/feedzinho/merges
p876
sVhas_issues
p877
I01
sVssh_url
p878
Vgit@github.com:cristibalan/feedzinho.git
p879
sVblobs_url
p880
Vhttps://api.github.com/repos/cristibalan/feedzinho/git/blobs{/sha}
p881
sVmaster_branch
p882
Vmaster
p883
sVgit_commits_url
p884
Vhttps://api.github.com/repos/cristibalan/feedzinho/git/commits{/sha}
p885
sVhooks_url
p886
Vhttps://api.github.com/repos/cristibalan/feedzinho/hooks
p887
sVhas_downloads
p888
I01
sVwatchers
p889
I1
sVname
p890
Vfeedzinho
p891
sVlanguage
p892
VRuby
p893
sVurl
p894
Vhttps://api.github.com/repos/cristibalan/feedzinho
p895
sVcreated_at
p896
V2009-12-27T02:36:37Z
p897
sVpushed_at
p898
V2009-12-27T02:37:04Z
p899
sVforks_count
p900
I0
sVdefault_branch
p901
Vmaster
p902
sVteams_url
p903
Vhttps://api.github.com/repos/cristibalan/feedzinho/teams
p904
sVtrees_url
p905
Vhttps://api.github.com/repos/cristibalan/feedzinho/git/trees{/sha}
p906
sVbranches_url
p907
Vhttps://api.github.com/repos/cristibalan/feedzinho/branches{/branch}
p908
sVsubscribers_url
p909
Vhttps://api.github.com/repos/cristibalan/feedzinho/subscribers
p910
sVstargazers_url
p911
Vhttps://api.github.com/repos/cristibalan/feedzinho/stargazers
p912
sa(dp913
Vissues_url
p914
Vhttps://api.github.com/repos/cristibalan/fizzy/issues{/number}
p915
sVstargazers_count
p916
I3
sVforks_url
p917
Vhttps://api.github.com/repos/cristibalan/fizzy/forks
p918
sVmirror_url
p919
NsVsubscription_url
p920
Vhttps://api.github.com/repos/cristibalan/fizzy/subscription
p921
sVnotifications_url
p922
Vhttps://api.github.com/repos/cristibalan/fizzy/notifications{?since,all,participating}
p923
sVcollaborators_url
p924
Vhttps://api.github.com/repos/cristibalan/fizzy/collaborators{/collaborator}
p925
sVupdated_at
p926
V2014-01-18T04:46:47Z
p927
sVprivate
p928
I00
sVpulls_url
p929
Vhttps://api.github.com/repos/cristibalan/fizzy/pulls{/number}
p930
sVissue_comment_url
p931
Vhttps://api.github.com/repos/cristibalan/fizzy/issues/comments/{number}
p932
sVlabels_url
p933
Vhttps://api.github.com/repos/cristibalan/fizzy/labels{/name}
p934
sVhas_wiki
p935
I01
sVfull_name
p936
Vcristibalan/fizzy
p937
sVowner
p938
(dp939
Vfollowing_url
p940
Vhttps://api.github.com/users/cristibalan/following{/other_user}
p941
sVevents_url
p942
Vhttps://api.github.com/users/cristibalan/events{/privacy}
p943
sVorganizations_url
p944
Vhttps://api.github.com/users/cristibalan/orgs
p945
sVurl
p946
Vhttps://api.github.com/users/cristibalan
p947
sVgists_url
p948
Vhttps://api.github.com/users/cristibalan/gists{/gist_id}
p949
sVhtml_url
p950
Vhttps://github.com/cristibalan
p951
sVsubscriptions_url
p952
Vhttps://api.github.com/users/cristibalan/subscriptions
p953
sVavatar_url
p954
Vhttps://gravatar.com/avatar/0e8c5f8d88cfc1aeeb59acdcc8aad387?d=https%3A%2F%2Fidenticons.github.com%2Fa0a080f42e6f13b3a2df133f073095dd.png&r=x
p955
sVrepos_url
p956
Vhttps://api.github.com/users/cristibalan/repos
p957
sVreceived_events_url
p958
Vhttps://api.github.com/users/cristibalan/received_events
p959
sVgravatar_id
p960
V0e8c5f8d88cfc1aeeb59acdcc8aad387
p961
sVstarred_url
p962
Vhttps://api.github.com/users/cristibalan/starred{/owner}{/repo}
p963
sVsite_admin
p964
I00
sVlogin
p965
Vcristibalan
p966
sVtype
p967
VUser
p968
sVid
p969
I122
sVfollowers_url
p970
Vhttps://api.github.com/users/cristibalan/followers
p971
ssVstatuses_url
p972
Vhttps://api.github.com/repos/cristibalan/fizzy/statuses/{sha}
p973
sVid
p974
I308915
sVkeys_url
p975
Vhttps://api.github.com/repos/cristibalan/fizzy/keys{/key_id}
p976
sVdescription
p977
VGangsta file matching.
p978
sVtags_url
p979
Vhttps://api.github.com/repos/cristibalan/fizzy/tags
p980
sVdownloads_url
p981
Vhttps://api.github.com/repos/cristibalan/fizzy/downloads
p982
sVassignees_url
p983
Vhttps://api.github.com/repos/cristibalan/fizzy/assignees{/user}
p984
sVcontents_url
p985
Vhttps://api.github.com/repos/cristibalan/fizzy/contents/{+path}
p986
sVgit_refs_url
p987
Vhttps://api.github.com/repos/cristibalan/fizzy/git/refs{/sha}
p988
sVopen_issues_count
p989
I0
sVclone_url
p990
Vhttps://github.com/cristibalan/fizzy.git
p991
sVwatchers_count
p992
I3
sVgit_tags_url
p993
Vhttps://api.github.com/repos/cristibalan/fizzy/git/tags{/sha}
p994
sVmilestones_url
p995
Vhttps://api.github.com/repos/cristibalan/fizzy/milestones{/number}
p996
sVlanguages_url
p997
Vhttps://api.github.com/repos/cristibalan/fizzy/languages
p998
sVsize
p999
I128
sVhomepage
p1000
g89
sVfork
p1001
I00
sVcommits_url
p1002
Vhttps://api.github.com/repos/cristibalan/fizzy/commits{/sha}
p1003
sVreleases_url
p1004
Vhttps://api.github.com/repos/cristibalan/fizzy/releases{/id}
p1005
sVissue_events_url
p1006
Vhttps://api.github.com/repos/cristibalan/fizzy/issues/events{/number}
p1007
sVarchive_url
p1008
Vhttps://api.github.com/repos/cristibalan/fizzy/{archive_format}{/ref}
p1009
sVcomments_url
p1010
Vhttps://api.github.com/repos/cristibalan/fizzy/comments{/number}
p1011
sVevents_url
p1012
Vhttps://api.github.com/repos/cristibalan/fizzy/events
p1013
sVcontributors_url
p1014
Vhttps://api.github.com/repos/cristibalan/fizzy/contributors
p1015
sVhtml_url
p1016
Vhttps://github.com/cristibalan/fizzy
p1017
sVforks
p1018
I0
sVcompare_url
p1019
Vhttps://api.github.com/repos/cristibalan/fizzy/compare/{base}...{head}
p1020
sVopen_issues
p1021
I0
sVgit_url
p1022
Vgit://github.com/cristibalan/fizzy.git
p1023
sVsvn_url
p1024
Vhttps://github.com/cristibalan/fizzy
p1025
sVmerges_url
p1026
Vhttps://api.github.com/repos/cristibalan/fizzy/merges
p1027
sVhas_issues
p1028
I01
sVssh_url
p1029
Vgit@github.com:cristibalan/fizzy.git
p1030
sVblobs_url
p1031
Vhttps://api.github.com/repos/cristibalan/fizzy/git/blobs{/sha}
p1032
sVmaster_branch
p1033
Vmaster
p1034
sVgit_commits_url
p1035
Vhttps://api.github.com/repos/cristibalan/fizzy/git/commits{/sha}
p1036
sVhooks_url
p1037
Vhttps://api.github.com/repos/cristibalan/fizzy/hooks
p1038
sVhas_downloads
p1039
I01
sVwatchers
p1040
I3
sVname
p1041
Vfizzy
p1042
sVlanguage
p1043
VRuby
p1044
sVurl
p1045
Vhttps://api.github.com/repos/cristibalan/fizzy
p1046
sVcreated_at
p1047
V2009-09-16T14:41:15Z
p1048
sVpushed_at
p1049
V2009-09-16T15:22:47Z
p1050
sVforks_count
p1051
I0
sVdefault_branch
p1052
Vmaster
p1053
sVteams_url
p1054
Vhttps://api.github.com/repos/cristibalan/fizzy/teams
p1055
sVtrees_url
p1056
Vhttps://api.github.com/repos/cristibalan/fizzy/git/trees{/sha}
p1057
sVbranches_url
p1058
Vhttps://api.github.com/repos/cristibalan/fizzy/branches{/branch}
p1059
sVsubscribers_url
p1060
Vhttps://api.github.com/repos/cristibalan/fizzy/subscribers
p1061
sVstargazers_url
p1062
Vhttps://api.github.com/repos/cristibalan/fizzy/stargazers
p1063
sa(dp1064
Vissues_url
p1065
Vhttps://api.github.com/repos/cristibalan/fluffy_barbarian/issues{/number}
p1066
sVstargazers_count
p1067
I2
sVforks_url
p1068
Vhttps://api.github.com/repos/cristibalan/fluffy_barbarian/forks
p1069
sVmirror_url
p1070
NsVsubscription_url
p1071
Vhttps://api.github.com/repos/cristibalan/fluffy_barbarian/subscription
p1072
sVnotifications_url
p1073
Vhttps://api.github.com/repos/cristibalan/fluffy_barbarian/notifications{?since,all,participating}
p1074
sVcollaborators_url
p1075
Vhttps://api.github.com/repos/cristibalan/fluffy_barbarian/collaborators{/collaborator}
p1076
sVupdated_at
p1077
V2013-10-31T17:17:20Z
p1078
sVprivate
p1079
I00
sVpulls_url
p1080
Vhttps://api.github.com/repos/cristibalan/fluffy_barbarian/pulls{/number}
p1081
sVissue_comment_url
p1082
Vhttps://api.github.com/repos/cristibalan/fluffy_barbarian/issues/comments/{number}
p1083
sVlabels_url
p1084
Vhttps://api.github.com/repos/cristibalan/fluffy_barbarian/labels{/name}
p1085
sVhas_wiki
p1086
I01
sVfull_name
p1087
Vcristibalan/fluffy_barbarian
p1088
sVowner
p1089
(dp1090
Vfollowing_url
p1091
Vhttps://api.github.com/users/cristibalan/following{/other_user}
p1092
sVevents_url
p1093
Vhttps://api.github.com/users/cristibalan/events{/privacy}
p1094
sVorganizations_url
p1095
Vhttps://api.github.com/users/cristibalan/orgs
p1096
sVurl
p1097
Vhttps://api.github.com/users/cristibalan
p1098
sVgists_url
p1099
Vhttps://api.github.com/users/cristibalan/gists{/gist_id}
p1100
sVhtml_url
p1101
Vhttps://github.com/cristibalan
p1102
sVsubscriptions_url
p1103
Vhttps://api.github.com/users/cristibalan/subscriptions
p1104
sVavatar_url
p1105
Vhttps://gravatar.com/avatar/0e8c5f8d88cfc1aeeb59acdcc8aad387?d=https%3A%2F%2Fidenticons.github.com%2Fa0a080f42e6f13b3a2df133f073095dd.png&r=x
p1106
sVrepos_url
p1107
Vhttps://api.github.com/users/cristibalan/repos
p1108
sVreceived_events_url
p1109
Vhttps://api.github.com/users/cristibalan/received_events
p1110
sVgravatar_id
p1111
V0e8c5f8d88cfc1aeeb59acdcc8aad387
p1112
sVstarred_url
p1113
Vhttps://api.github.com/users/cristibalan/starred{/owner}{/repo}
p1114
sVsite_admin
p1115
I00
sVlogin
p1116
Vcristibalan
p1117
sVtype
p1118
VUser
p1119
sVid
p1120
I122
sVfollowers_url
p1121
Vhttps://api.github.com/users/cristibalan/followers
p1122
ssVstatuses_url
p1123
Vhttps://api.github.com/repos/cristibalan/fluffy_barbarian/statuses/{sha}
p1124
sVid
p1125
I1041009
sVkeys_url
p1126
Vhttps://api.github.com/repos/cristibalan/fluffy_barbarian/keys{/key_id}
p1127
sVdescription
p1128
VFluffy barbarian carefully handles your blog
p1129
sVtags_url
p1130
Vhttps://api.github.com/repos/cristibalan/fluffy_barbarian/tags
p1131
sVdownloads_url
p1132
Vhttps://api.github.com/repos/cristibalan/fluffy_barbarian/downloads
p1133
sVassignees_url
p1134
Vhttps://api.github.com/repos/cristibalan/fluffy_barbarian/assignees{/user}
p1135
sVcontents_url
p1136
Vhttps://api.github.com/repos/cristibalan/fluffy_barbarian/contents/{+path}
p1137
sVgit_refs_url
p1138
Vhttps://api.github.com/repos/cristibalan/fluffy_barbarian/git/refs{/sha}
p1139
sVopen_issues_count
p1140
I0
sVclone_url
p1141
Vhttps://github.com/cristibalan/fluffy_barbarian.git
p1142
sVwatchers_count
p1143
I2
sVgit_tags_url
p1144
Vhttps://api.github.com/repos/cristibalan/fluffy_barbarian/git/tags{/sha}
p1145
sVmilestones_url
p1146
Vhttps://api.github.com/repos/cristibalan/fluffy_barbarian/milestones{/number}
p1147
sVlanguages_url
p1148
Vhttps://api.github.com/repos/cristibalan/fluffy_barbarian/languages
p1149
sVsize
p1150
I104
sVhomepage
p1151
g89
sVfork
p1152
I00
sVcommits_url
p1153
Vhttps://api.github.com/repos/cristibalan/fluffy_barbarian/commits{/sha}
p1154
sVreleases_url
p1155
Vhttps://api.github.com/repos/cristibalan/fluffy_barbarian/releases{/id}
p1156
sVissue_events_url
p1157
Vhttps://api.github.com/repos/cristibalan/fluffy_barbarian/issues/events{/number}
p1158
sVarchive_url
p1159
Vhttps://api.github.com/repos/cristibalan/fluffy_barbarian/{archive_format}{/ref}
p1160
sVcomments_url
p1161
Vhttps://api.github.com/repos/cristibalan/fluffy_barbarian/comments{/number}
p1162
sVevents_url
p1163
Vhttps://api.github.com/repos/cristibalan/fluffy_barbarian/events
p1164
sVcontributors_url
p1165
Vhttps://api.github.com/repos/cristibalan/fluffy_barbarian/contributors
p1166
sVhtml_url
p1167
Vhttps://github.com/cristibalan/fluffy_barbarian
p1168
sVforks
p1169
I0
sVcompare_url
p1170
Vhttps://api.github.com/repos/cristibalan/fluffy_barbarian/compare/{base}...{head}
p1171
sVopen_issues
p1172
I0
sVgit_url
p1173
Vgit://github.com/cristibalan/fluffy_barbarian.git
p1174
sVsvn_url
p1175
Vhttps://github.com/cristibalan/fluffy_barbarian
p1176
sVmerges_url
p1177
Vhttps://api.github.com/repos/cristibalan/fluffy_barbarian/merges
p1178
sVhas_issues
p1179
I01
sVssh_url
p1180
Vgit@github.com:cristibalan/fluffy_barbarian.git
p1181
sVblobs_url
p1182
Vhttps://api.github.com/repos/cristibalan/fluffy_barbarian/git/blobs{/sha}
p1183
sVmaster_branch
p1184
Vmaster
p1185
sVgit_commits_url
p1186
Vhttps://api.github.com/repos/cristibalan/fluffy_barbarian/git/commits{/sha}
p1187
sVhooks_url
p1188
Vhttps://api.github.com/repos/cristibalan/fluffy_barbarian/hooks
p1189
sVhas_downloads
p1190
I01
sVwatchers
p1191
I2
sVname
p1192
Vfluffy_barbarian
p1193
sVlanguage
p1194
VRuby
p1195
sVurl
p1196
Vhttps://api.github.com/repos/cristibalan/fluffy_barbarian
p1197
sVcreated_at
p1198
V2010-11-01T05:25:27Z
p1199
sVpushed_at
p1200
V2010-11-01T16:17:53Z
p1201
sVforks_count
p1202
I0
sVdefault_branch
p1203
Vmaster
p1204
sVteams_url
p1205
Vhttps://api.github.com/repos/cristibalan/fluffy_barbarian/teams
p1206
sVtrees_url
p1207
Vhttps://api.github.com/repos/cristibalan/fluffy_barbarian/git/trees{/sha}
p1208
sVbranches_url
p1209
Vhttps://api.github.com/repos/cristibalan/fluffy_barbarian/branches{/branch}
p1210
sVsubscribers_url
p1211
Vhttps://api.github.com/repos/cristibalan/fluffy_barbarian/subscribers
p1212
sVstargazers_url
p1213
Vhttps://api.github.com/repos/cristibalan/fluffy_barbarian/stargazers
p1214
sa(dp1215
Vissues_url
p1216
Vhttps://api.github.com/repos/cristibalan/fuf-fizzy/issues{/number}
p1217
sVstargazers_count
p1218
I1
sVforks_url
p1219
Vhttps://api.github.com/repos/cristibalan/fuf-fizzy/forks
p1220
sVmirror_url
p1221
NsVsubscription_url
p1222
Vhttps://api.github.com/repos/cristibalan/fuf-fizzy/subscription
p1223
sVnotifications_url
p1224
Vhttps://api.github.com/repos/cristibalan/fuf-fizzy/notifications{?since,all,participating}
p1225
sVcollaborators_url
p1226
Vhttps://api.github.com/repos/cristibalan/fuf-fizzy/collaborators{/collaborator}
p1227
sVupdated_at
p1228
V2013-10-28T00:41:34Z
p1229
sVprivate
p1230
I00
sVpulls_url
p1231
Vhttps://api.github.com/repos/cristibalan/fuf-fizzy/pulls{/number}
p1232
sVissue_comment_url
p1233
Vhttps://api.github.com/repos/cristibalan/fuf-fizzy/issues/comments/{number}
p1234
sVlabels_url
p1235
Vhttps://api.github.com/repos/cristibalan/fuf-fizzy/labels{/name}
p1236
sVhas_wiki
p1237
I01
sVfull_name
p1238
Vcristibalan/fuf-fizzy
p1239
sVowner
p1240
(dp1241
Vfollowing_url
p1242
Vhttps://api.github.com/users/cristibalan/following{/other_user}
p1243
sVevents_url
p1244
Vhttps://api.github.com/users/cristibalan/events{/privacy}
p1245
sVorganizations_url
p1246
Vhttps://api.github.com/users/cristibalan/orgs
p1247
sVurl
p1248
Vhttps://api.github.com/users/cristibalan
p1249
sVgists_url
p1250
Vhttps://api.github.com/users/cristibalan/gists{/gist_id}
p1251
sVhtml_url
p1252
Vhttps://github.com/cristibalan
p1253
sVsubscriptions_url
p1254
Vhttps://api.github.com/users/cristibalan/subscriptions
p1255
sVavatar_url
p1256
Vhttps://gravatar.com/avatar/0e8c5f8d88cfc1aeeb59acdcc8aad387?d=https%3A%2F%2Fidenticons.github.com%2Fa0a080f42e6f13b3a2df133f073095dd.png&r=x
p1257
sVrepos_url
p1258
Vhttps://api.github.com/users/cristibalan/repos
p1259
sVreceived_events_url
p1260
Vhttps://api.github.com/users/cristibalan/received_events
p1261
sVgravatar_id
p1262
V0e8c5f8d88cfc1aeeb59acdcc8aad387
p1263
sVstarred_url
p1264
Vhttps://api.github.com/users/cristibalan/starred{/owner}{/repo}
p1265
sVsite_admin
p1266
I00
sVlogin
p1267
Vcristibalan
p1268
sVtype
p1269
VUser
p1270
sVid
p1271
I122
sVfollowers_url
p1272
Vhttps://api.github.com/users/cristibalan/followers
p1273
ssVstatuses_url
p1274
Vhttps://api.github.com/repos/cristibalan/fuf-fizzy/statuses/{sha}
p1275
sVid
p1276
I308962
sVkeys_url
p1277
Vhttps://api.github.com/repos/cristibalan/fuf-fizzy/keys{/key_id}
p1278
sVdescription
p1279
VFizzy mode for fuzzyfinder.vim
p1280
sVtags_url
p1281
Vhttps://api.github.com/repos/cristibalan/fuf-fizzy/tags
p1282
sVdownloads_url
p1283
Vhttps://api.github.com/repos/cristibalan/fuf-fizzy/downloads
p1284
sVassignees_url
p1285
Vhttps://api.github.com/repos/cristibalan/fuf-fizzy/assignees{/user}
p1286
sVcontents_url
p1287
Vhttps://api.github.com/repos/cristibalan/fuf-fizzy/contents/{+path}
p1288
sVgit_refs_url
p1289
Vhttps://api.github.com/repos/cristibalan/fuf-fizzy/git/refs{/sha}
p1290
sVopen_issues_count
p1291
I0
sVclone_url
p1292
Vhttps://github.com/cristibalan/fuf-fizzy.git
p1293
sVwatchers_count
p1294
I1
sVgit_tags_url
p1295
Vhttps://api.github.com/repos/cristibalan/fuf-fizzy/git/tags{/sha}
p1296
sVmilestones_url
p1297
Vhttps://api.github.com/repos/cristibalan/fuf-fizzy/milestones{/number}
p1298
sVlanguages_url
p1299
Vhttps://api.github.com/repos/cristibalan/fuf-fizzy/languages
p1300
sVsize
p1301
I76
sVhomepage
p1302
g89
sVfork
p1303
I00
sVcommits_url
p1304
Vhttps://api.github.com/repos/cristibalan/fuf-fizzy/commits{/sha}
p1305
sVreleases_url
p1306
Vhttps://api.github.com/repos/cristibalan/fuf-fizzy/releases{/id}
p1307
sVissue_events_url
p1308
Vhttps://api.github.com/repos/cristibalan/fuf-fizzy/issues/events{/number}
p1309
sVarchive_url
p1310
Vhttps://api.github.com/repos/cristibalan/fuf-fizzy/{archive_format}{/ref}
p1311
sVcomments_url
p1312
Vhttps://api.github.com/repos/cristibalan/fuf-fizzy/comments{/number}
p1313
sVevents_url
p1314
Vhttps://api.github.com/repos/cristibalan/fuf-fizzy/events
p1315
sVcontributors_url
p1316
Vhttps://api.github.com/repos/cristibalan/fuf-fizzy/contributors
p1317
sVhtml_url
p1318
Vhttps://github.com/cristibalan/fuf-fizzy
p1319
sVforks
p1320
I0
sVcompare_url
p1321
Vhttps://api.github.com/repos/cristibalan/fuf-fizzy/compare/{base}...{head}
p1322
sVopen_issues
p1323
I0
sVgit_url
p1324
Vgit://github.com/cristibalan/fuf-fizzy.git
p1325
sVsvn_url
p1326
Vhttps://github.com/cristibalan/fuf-fizzy
p1327
sVmerges_url
p1328
Vhttps://api.github.com/repos/cristibalan/fuf-fizzy/merges
p1329
sVhas_issues
p1330
I01
sVssh_url
p1331
Vgit@github.com:cristibalan/fuf-fizzy.git
p1332
sVblobs_url
p1333
Vhttps://api.github.com/repos/cristibalan/fuf-fizzy/git/blobs{/sha}
p1334
sVmaster_branch
p1335
Vmaster
p1336
sVgit_commits_url
p1337
Vhttps://api.github.com/repos/cristibalan/fuf-fizzy/git/commits{/sha}
p1338
sVhooks_url
p1339
Vhttps://api.github.com/repos/cristibalan/fuf-fizzy/hooks
p1340
sVhas_downloads
p1341
I01
sVwatchers
p1342
I1
sVname
p1343
Vfuf-fizzy
p1344
sVlanguage
p1345
VVimL
p1346
sVurl
p1347
Vhttps://api.github.com/repos/cristibalan/fuf-fizzy
p1348
sVcreated_at
p1349
V2009-09-16T15:19:48Z
p1350
sVpushed_at
p1351
V2009-10-13T10:08:03Z
p1352
sVforks_count
p1353
I0
sVdefault_branch
p1354
Vmaster
p1355
sVteams_url
p1356
Vhttps://api.github.com/repos/cristibalan/fuf-fizzy/teams
p1357
sVtrees_url
p1358
Vhttps://api.github.com/repos/cristibalan/fuf-fizzy/git/trees{/sha}
p1359
sVbranches_url
p1360
Vhttps://api.github.com/repos/cristibalan/fuf-fizzy/branches{/branch}
p1361
sVsubscribers_url
p1362
Vhttps://api.github.com/repos/cristibalan/fuf-fizzy/subscribers
p1363
sVstargazers_url
p1364
Vhttps://api.github.com/repos/cristibalan/fuf-fizzy/stargazers
p1365
sa(dp1366
Vissues_url
p1367
Vhttps://api.github.com/repos/cristibalan/fuzzyfinder_textmate/issues{/number}
p1368
sVstargazers_count
p1369
I1
sVforks_url
p1370
Vhttps://api.github.com/repos/cristibalan/fuzzyfinder_textmate/forks
p1371
sVmirror_url
p1372
NsVsubscription_url
p1373
Vhttps://api.github.com/repos/cristibalan/fuzzyfinder_textmate/subscription
p1374
sVnotifications_url
p1375
Vhttps://api.github.com/repos/cristibalan/fuzzyfinder_textmate/notifications{?since,all,participating}
p1376
sVcollaborators_url
p1377
Vhttps://api.github.com/repos/cristibalan/fuzzyfinder_textmate/collaborators{/collaborator}
p1378
sVupdated_at
p1379
V2013-10-28T00:41:34Z
p1380
sVprivate
p1381
I00
sVpulls_url
p1382
Vhttps://api.github.com/repos/cristibalan/fuzzyfinder_textmate/pulls{/number}
p1383
sVissue_comment_url
p1384
Vhttps://api.github.com/repos/cristibalan/fuzzyfinder_textmate/issues/comments/{number}
p1385
sVlabels_url
p1386
Vhttps://api.github.com/repos/cristibalan/fuzzyfinder_textmate/labels{/name}
p1387
sVhas_wiki
p1388
I01
sVfull_name
p1389
Vcristibalan/fuzzyfinder_textmate
p1390
sVowner
p1391
(dp1392
Vfollowing_url
p1393
Vhttps://api.github.com/users/cristibalan/following{/other_user}
p1394
sVevents_url
p1395
Vhttps://api.github.com/users/cristibalan/events{/privacy}
p1396
sVorganizations_url
p1397
Vhttps://api.github.com/users/cristibalan/orgs
p1398
sVurl
p1399
Vhttps://api.github.com/users/cristibalan
p1400
sVgists_url
p1401
Vhttps://api.github.com/users/cristibalan/gists{/gist_id}
p1402
sVhtml_url
p1403
Vhttps://github.com/cristibalan
p1404
sVsubscriptions_url
p1405
Vhttps://api.github.com/users/cristibalan/subscriptions
p1406
sVavatar_url
p1407
Vhttps://gravatar.com/avatar/0e8c5f8d88cfc1aeeb59acdcc8aad387?d=https%3A%2F%2Fidenticons.github.com%2Fa0a080f42e6f13b3a2df133f073095dd.png&r=x
p1408
sVrepos_url
p1409
Vhttps://api.github.com/users/cristibalan/repos
p1410
sVreceived_events_url
p1411
Vhttps://api.github.com/users/cristibalan/received_events
p1412
sVgravatar_id
p1413
V0e8c5f8d88cfc1aeeb59acdcc8aad387
p1414
sVstarred_url
p1415
Vhttps://api.github.com/users/cristibalan/starred{/owner}{/repo}
p1416
sVsite_admin
p1417
I00
sVlogin
p1418
Vcristibalan
p1419
sVtype
p1420
VUser
p1421
sVid
p1422
I122
sVfollowers_url
p1423
Vhttps://api.github.com/users/cristibalan/followers
p1424
ssVstatuses_url
p1425
Vhttps://api.github.com/repos/cristibalan/fuzzyfinder_textmate/statuses/{sha}
p1426
sVid
p1427
I124627
sVkeys_url
p1428
Vhttps://api.github.com/repos/cristibalan/fuzzyfinder_textmate/keys{/key_id}
p1429
sVdescription
p1430
VUNMAINTAINED! A vim script that extends the fuzzyfinder plugin to support TextMate style file searches (e.g. cmd-T)
p1431
sVtags_url
p1432
Vhttps://api.github.com/repos/cristibalan/fuzzyfinder_textmate/tags
p1433
sVdownloads_url
p1434
Vhttps://api.github.com/repos/cristibalan/fuzzyfinder_textmate/downloads
p1435
sVassignees_url
p1436
Vhttps://api.github.com/repos/cristibalan/fuzzyfinder_textmate/assignees{/user}
p1437
sVcontents_url
p1438
Vhttps://api.github.com/repos/cristibalan/fuzzyfinder_textmate/contents/{+path}
p1439
sVgit_refs_url
p1440
Vhttps://api.github.com/repos/cristibalan/fuzzyfinder_textmate/git/refs{/sha}
p1441
sVopen_issues_count
p1442
I0
sVclone_url
p1443
Vhttps://github.com/cristibalan/fuzzyfinder_textmate.git
p1444
sVwatchers_count
p1445
I1
sVgit_tags_url
p1446
Vhttps://api.github.com/repos/cristibalan/fuzzyfinder_textmate/git/tags{/sha}
p1447
sVmilestones_url
p1448
Vhttps://api.github.com/repos/cristibalan/fuzzyfinder_textmate/milestones{/number}
p1449
sVlanguages_url
p1450
Vhttps://api.github.com/repos/cristibalan/fuzzyfinder_textmate/languages
p1451
sVsize
p1452
I90
sVhomepage
p1453
g89
sVfork
p1454
I01
sVcommits_url
p1455
Vhttps://api.github.com/repos/cristibalan/fuzzyfinder_textmate/commits{/sha}
p1456
sVreleases_url
p1457
Vhttps://api.github.com/repos/cristibalan/fuzzyfinder_textmate/releases{/id}
p1458
sVissue_events_url
p1459
Vhttps://api.github.com/repos/cristibalan/fuzzyfinder_textmate/issues/events{/number}
p1460
sVarchive_url
p1461
Vhttps://api.github.com/repos/cristibalan/fuzzyfinder_textmate/{archive_format}{/ref}
p1462
sVcomments_url
p1463
Vhttps://api.github.com/repos/cristibalan/fuzzyfinder_textmate/comments{/number}
p1464
sVevents_url
p1465
Vhttps://api.github.com/repos/cristibalan/fuzzyfinder_textmate/events
p1466
sVcontributors_url
p1467
Vhttps://api.github.com/repos/cristibalan/fuzzyfinder_textmate/contributors
p1468
sVhtml_url
p1469
Vhttps://github.com/cristibalan/fuzzyfinder_textmate
p1470
sVforks
p1471
I0
sVcompare_url
p1472
Vhttps://api.github.com/repos/cristibalan/fuzzyfinder_textmate/compare/{base}...{head}
p1473
sVopen_issues
p1474
I0
sVgit_url
p1475
Vgit://github.com/cristibalan/fuzzyfinder_textmate.git
p1476
sVsvn_url
p1477
Vhttps://github.com/cristibalan/fuzzyfinder_textmate
p1478
sVmerges_url
p1479
Vhttps://api.github.com/repos/cristibalan/fuzzyfinder_textmate/merges
p1480
sVhas_issues
p1481
I01
sVssh_url
p1482
Vgit@github.com:cristibalan/fuzzyfinder_textmate.git
p1483
sVblobs_url
p1484
Vhttps://api.github.com/repos/cristibalan/fuzzyfinder_textmate/git/blobs{/sha}
p1485
sVmaster_branch
p1486
Vmaster
p1487
sVgit_commits_url
p1488
Vhttps://api.github.com/repos/cristibalan/fuzzyfinder_textmate/git/commits{/sha}
p1489
sVhooks_url
p1490
Vhttps://api.github.com/repos/cristibalan/fuzzyfinder_textmate/hooks
p1491
sVhas_downloads
p1492
I01
sVwatchers
p1493
I1
sVname
p1494
Vfuzzyfinder_textmate
p1495
sVlanguage
p1496
VVimL
p1497
sVurl
p1498
Vhttps://api.github.com/repos/cristibalan/fuzzyfinder_textmate
p1499
sVcreated_at
p1500
V2009-02-08T23:55:28Z
p1501
sVpushed_at
p1502
V2009-02-09T00:23:08Z
p1503
sVforks_count
p1504
I0
sVdefault_branch
p1505
Vmaster
p1506
sVteams_url
p1507
Vhttps://api.github.com/repos/cristibalan/fuzzyfinder_textmate/teams
p1508
sVtrees_url
p1509
Vhttps://api.github.com/repos/cristibalan/fuzzyfinder_textmate/git/trees{/sha}
p1510
sVbranches_url
p1511
Vhttps://api.github.com/repos/cristibalan/fuzzyfinder_textmate/branches{/branch}
p1512
sVsubscribers_url
p1513
Vhttps://api.github.com/repos/cristibalan/fuzzyfinder_textmate/subscribers
p1514
sVstargazers_url
p1515
Vhttps://api.github.com/repos/cristibalan/fuzzyfinder_textmate/stargazers
p1516
sa(dp1517
Vissues_url
p1518
Vhttps://api.github.com/repos/cristibalan/fuzzy_file_finder/issues{/number}
p1519
sVstargazers_count
p1520
I1
sVforks_url
p1521
Vhttps://api.github.com/repos/cristibalan/fuzzy_file_finder/forks
p1522
sVmirror_url
p1523
NsVsubscription_url
p1524
Vhttps://api.github.com/repos/cristibalan/fuzzy_file_finder/subscription
p1525
sVnotifications_url
p1526
Vhttps://api.github.com/repos/cristibalan/fuzzy_file_finder/notifications{?since,all,participating}
p1527
sVcollaborators_url
p1528
Vhttps://api.github.com/repos/cristibalan/fuzzy_file_finder/collaborators{/collaborator}
p1529
sVupdated_at
p1530
V2013-10-28T00:41:34Z
p1531
sVprivate
p1532
I00
sVpulls_url
p1533
Vhttps://api.github.com/repos/cristibalan/fuzzy_file_finder/pulls{/number}
p1534
sVissue_comment_url
p1535
Vhttps://api.github.com/repos/cristibalan/fuzzy_file_finder/issues/comments/{number}
p1536
sVlabels_url
p1537
Vhttps://api.github.com/repos/cristibalan/fuzzy_file_finder/labels{/name}
p1538
sVhas_wiki
p1539
I01
sVfull_name
p1540
Vcristibalan/fuzzy_file_finder
p1541
sVowner
p1542
(dp1543
Vfollowing_url
p1544
Vhttps://api.github.com/users/cristibalan/following{/other_user}
p1545
sVevents_url
p1546
Vhttps://api.github.com/users/cristibalan/events{/privacy}
p1547
sVorganizations_url
p1548
Vhttps://api.github.com/users/cristibalan/orgs
p1549
sVurl
p1550
Vhttps://api.github.com/users/cristibalan
p1551
sVgists_url
p1552
Vhttps://api.github.com/users/cristibalan/gists{/gist_id}
p1553
sVhtml_url
p1554
Vhttps://github.com/cristibalan
p1555
sVsubscriptions_url
p1556
Vhttps://api.github.com/users/cristibalan/subscriptions
p1557
sVavatar_url
p1558
Vhttps://gravatar.com/avatar/0e8c5f8d88cfc1aeeb59acdcc8aad387?d=https%3A%2F%2Fidenticons.github.com%2Fa0a080f42e6f13b3a2df133f073095dd.png&r=x
p1559
sVrepos_url
p1560
Vhttps://api.github.com/users/cristibalan/repos
p1561
sVreceived_events_url
p1562
Vhttps://api.github.com/users/cristibalan/received_events
p1563
sVgravatar_id
p1564
V0e8c5f8d88cfc1aeeb59acdcc8aad387
p1565
sVstarred_url
p1566
Vhttps://api.github.com/users/cristibalan/starred{/owner}{/repo}
p1567
sVsite_admin
p1568
I00
sVlogin
p1569
Vcristibalan
p1570
sVtype
p1571
VUser
p1572
sVid
p1573
I122
sVfollowers_url
p1574
Vhttps://api.github.com/users/cristibalan/followers
p1575
ssVstatuses_url
p1576
Vhttps://api.github.com/repos/cristibalan/fuzzy_file_finder/statuses/{sha}
p1577
sVid
p1578
I124563
sVkeys_url
p1579
Vhttps://api.github.com/repos/cristibalan/fuzzy_file_finder/keys{/key_id}
p1580
sVdescription
p1581
VUNMAINTAINED! A (slightly enhanced) implementation of TextMate's cmd-T lookup functionality, in Ruby, for embedding in other projects
p1582
sVtags_url
p1583
Vhttps://api.github.com/repos/cristibalan/fuzzy_file_finder/tags
p1584
sVdownloads_url
p1585
Vhttps://api.github.com/repos/cristibalan/fuzzy_file_finder/downloads
p1586
sVassignees_url
p1587
Vhttps://api.github.com/repos/cristibalan/fuzzy_file_finder/assignees{/user}
p1588
sVcontents_url
p1589
Vhttps://api.github.com/repos/cristibalan/fuzzy_file_finder/contents/{+path}
p1590
sVgit_refs_url
p1591
Vhttps://api.github.com/repos/cristibalan/fuzzy_file_finder/git/refs{/sha}
p1592
sVopen_issues_count
p1593
I0
sVclone_url
p1594
Vhttps://github.com/cristibalan/fuzzy_file_finder.git
p1595
sVwatchers_count
p1596
I1
sVgit_tags_url
p1597
Vhttps://api.github.com/repos/cristibalan/fuzzy_file_finder/git/tags{/sha}
p1598
sVmilestones_url
p1599
Vhttps://api.github.com/repos/cristibalan/fuzzy_file_finder/milestones{/number}
p1600
sVlanguages_url
p1601
Vhttps://api.github.com/repos/cristibalan/fuzzy_file_finder/languages
p1602
sVsize
p1603
I92
sVhomepage
p1604
g89
sVfork
p1605
I01
sVcommits_url
p1606
Vhttps://api.github.com/repos/cristibalan/fuzzy_file_finder/commits{/sha}
p1607
sVreleases_url
p1608
Vhttps://api.github.com/repos/cristibalan/fuzzy_file_finder/releases{/id}
p1609
sVissue_events_url
p1610
Vhttps://api.github.com/repos/cristibalan/fuzzy_file_finder/issues/events{/number}
p1611
sVarchive_url
p1612
Vhttps://api.github.com/repos/cristibalan/fuzzy_file_finder/{archive_format}{/ref}
p1613
sVcomments_url
p1614
Vhttps://api.github.com/repos/cristibalan/fuzzy_file_finder/comments{/number}
p1615
sVevents_url
p1616
Vhttps://api.github.com/repos/cristibalan/fuzzy_file_finder/events
p1617
sVcontributors_url
p1618
Vhttps://api.github.com/repos/cristibalan/fuzzy_file_finder/contributors
p1619
sVhtml_url
p1620
Vhttps://github.com/cristibalan/fuzzy_file_finder
p1621
sVforks
p1622
I0
sVcompare_url
p1623
Vhttps://api.github.com/repos/cristibalan/fuzzy_file_finder/compare/{base}...{head}
p1624
sVopen_issues
p1625
I0
sVgit_url
p1626
Vgit://github.com/cristibalan/fuzzy_file_finder.git
p1627
sVsvn_url
p1628
Vhttps://github.com/cristibalan/fuzzy_file_finder
p1629
sVmerges_url
p1630
Vhttps://api.github.com/repos/cristibalan/fuzzy_file_finder/merges
p1631
sVhas_issues
p1632
I01
sVssh_url
p1633
Vgit@github.com:cristibalan/fuzzy_file_finder.git
p1634
sVblobs_url
p1635
Vhttps://api.github.com/repos/cristibalan/fuzzy_file_finder/git/blobs{/sha}
p1636
sVmaster_branch
p1637
Vmaster
p1638
sVgit_commits_url
p1639
Vhttps://api.github.com/repos/cristibalan/fuzzy_file_finder/git/commits{/sha}
p1640
sVhooks_url
p1641
Vhttps://api.github.com/repos/cristibalan/fuzzy_file_finder/hooks
p1642
sVhas_downloads
p1643
I01
sVwatchers
p1644
I1
sVname
p1645
Vfuzzy_file_finder
p1646
sVlanguage
p1647
VRuby
p1648
sVurl
p1649
Vhttps://api.github.com/repos/cristibalan/fuzzy_file_finder
p1650
sVcreated_at
p1651
V2009-02-08T21:42:00Z
p1652
sVpushed_at
p1653
V2009-02-10T18:31:58Z
p1654
sVforks_count
p1655
I0
sVdefault_branch
p1656
Vmaster
p1657
sVteams_url
p1658
Vhttps://api.github.com/repos/cristibalan/fuzzy_file_finder/teams
p1659
sVtrees_url
p1660
Vhttps://api.github.com/repos/cristibalan/fuzzy_file_finder/git/trees{/sha}
p1661
sVbranches_url
p1662
Vhttps://api.github.com/repos/cristibalan/fuzzy_file_finder/branches{/branch}
p1663
sVsubscribers_url
p1664
Vhttps://api.github.com/repos/cristibalan/fuzzy_file_finder/subscribers
p1665
sVstargazers_url
p1666
Vhttps://api.github.com/repos/cristibalan/fuzzy_file_finder/stargazers
p1667
sa(dp1668
Vissues_url
p1669
Vhttps://api.github.com/repos/cristibalan/gist_inliner/issues{/number}
p1670
sVstargazers_count
p1671
I1
sVforks_url
p1672
Vhttps://api.github.com/repos/cristibalan/gist_inliner/forks
p1673
sVmirror_url
p1674
NsVsubscription_url
p1675
Vhttps://api.github.com/repos/cristibalan/gist_inliner/subscription
p1676
sVnotifications_url
p1677
Vhttps://api.github.com/repos/cristibalan/gist_inliner/notifications{?since,all,participating}
p1678
sVcollaborators_url
p1679
Vhttps://api.github.com/repos/cristibalan/gist_inliner/collaborators{/collaborator}
p1680
sVupdated_at
p1681
V2013-10-28T00:41:34Z
p1682
sVprivate
p1683
I00
sVpulls_url
p1684
Vhttps://api.github.com/repos/cristibalan/gist_inliner/pulls{/number}
p1685
sVissue_comment_url
p1686
Vhttps://api.github.com/repos/cristibalan/gist_inliner/issues/comments/{number}
p1687
sVlabels_url
p1688
Vhttps://api.github.com/repos/cristibalan/gist_inliner/labels{/name}
p1689
sVhas_wiki
p1690
I01
sVfull_name
p1691
Vcristibalan/gist_inliner
p1692
sVowner
p1693
(dp1694
Vfollowing_url
p1695
Vhttps://api.github.com/users/cristibalan/following{/other_user}
p1696
sVevents_url
p1697
Vhttps://api.github.com/users/cristibalan/events{/privacy}
p1698
sVorganizations_url
p1699
Vhttps://api.github.com/users/cristibalan/orgs
p1700
sVurl
p1701
Vhttps://api.github.com/users/cristibalan
p1702
sVgists_url
p1703
Vhttps://api.github.com/users/cristibalan/gists{/gist_id}
p1704
sVhtml_url
p1705
Vhttps://github.com/cristibalan
p1706
sVsubscriptions_url
p1707
Vhttps://api.github.com/users/cristibalan/subscriptions
p1708
sVavatar_url
p1709
Vhttps://gravatar.com/avatar/0e8c5f8d88cfc1aeeb59acdcc8aad387?d=https%3A%2F%2Fidenticons.github.com%2Fa0a080f42e6f13b3a2df133f073095dd.png&r=x
p1710
sVrepos_url
p1711
Vhttps://api.github.com/users/cristibalan/repos
p1712
sVreceived_events_url
p1713
Vhttps://api.github.com/users/cristibalan/received_events
p1714
sVgravatar_id
p1715
V0e8c5f8d88cfc1aeeb59acdcc8aad387
p1716
sVstarred_url
p1717
Vhttps://api.github.com/users/cristibalan/starred{/owner}{/repo}
p1718
sVsite_admin
p1719
I00
sVlogin
p1720
Vcristibalan
p1721
sVtype
p1722
VUser
p1723
sVid
p1724
I122
sVfollowers_url
p1725
Vhttps://api.github.com/users/cristibalan/followers
p1726
ssVstatuses_url
p1727
Vhttps://api.github.com/repos/cristibalan/gist_inliner/statuses/{sha}
p1728
sVid
p1729
I451532
sVkeys_url
p1730
Vhttps://api.github.com/repos/cristibalan/gist_inliner/keys{/key_id}
p1731
sVdescription
p1732
VInline gists into HTML
p1733
sVtags_url
p1734
Vhttps://api.github.com/repos/cristibalan/gist_inliner/tags
p1735
sVdownloads_url
p1736
Vhttps://api.github.com/repos/cristibalan/gist_inliner/downloads
p1737
sVassignees_url
p1738
Vhttps://api.github.com/repos/cristibalan/gist_inliner/assignees{/user}
p1739
sVcontents_url
p1740
Vhttps://api.github.com/repos/cristibalan/gist_inliner/contents/{+path}
p1741
sVgit_refs_url
p1742
Vhttps://api.github.com/repos/cristibalan/gist_inliner/git/refs{/sha}
p1743
sVopen_issues_count
p1744
I0
sVclone_url
p1745
Vhttps://github.com/cristibalan/gist_inliner.git
p1746
sVwatchers_count
p1747
I1
sVgit_tags_url
p1748
Vhttps://api.github.com/repos/cristibalan/gist_inliner/git/tags{/sha}
p1749
sVmilestones_url
p1750
Vhttps://api.github.com/repos/cristibalan/gist_inliner/milestones{/number}
p1751
sVlanguages_url
p1752
Vhttps://api.github.com/repos/cristibalan/gist_inliner/languages
p1753
sVsize
p1754
I84
sVhomepage
p1755
g89
sVfork
p1756
I00
sVcommits_url
p1757
Vhttps://api.github.com/repos/cristibalan/gist_inliner/commits{/sha}
p1758
sVreleases_url
p1759
Vhttps://api.github.com/repos/cristibalan/gist_inliner/releases{/id}
p1760
sVissue_events_url
p1761
Vhttps://api.github.com/repos/cristibalan/gist_inliner/issues/events{/number}
p1762
sVarchive_url
p1763
Vhttps://api.github.com/repos/cristibalan/gist_inliner/{archive_format}{/ref}
p1764
sVcomments_url
p1765
Vhttps://api.github.com/repos/cristibalan/gist_inliner/comments{/number}
p1766
sVevents_url
p1767
Vhttps://api.github.com/repos/cristibalan/gist_inliner/events
p1768
sVcontributors_url
p1769
Vhttps://api.github.com/repos/cristibalan/gist_inliner/contributors
p1770
sVhtml_url
p1771
Vhttps://github.com/cristibalan/gist_inliner
p1772
sVforks
p1773
I0
sVcompare_url
p1774
Vhttps://api.github.com/repos/cristibalan/gist_inliner/compare/{base}...{head}
p1775
sVopen_issues
p1776
I0
sVgit_url
p1777
Vgit://github.com/cristibalan/gist_inliner.git
p1778
sVsvn_url
p1779
Vhttps://github.com/cristibalan/gist_inliner
p1780
sVmerges_url
p1781
Vhttps://api.github.com/repos/cristibalan/gist_inliner/merges
p1782
sVhas_issues
p1783
I01
sVssh_url
p1784
Vgit@github.com:cristibalan/gist_inliner.git
p1785
sVblobs_url
p1786
Vhttps://api.github.com/repos/cristibalan/gist_inliner/git/blobs{/sha}
p1787
sVmaster_branch
p1788
Vmaster
p1789
sVgit_commits_url
p1790
Vhttps://api.github.com/repos/cristibalan/gist_inliner/git/commits{/sha}
p1791
sVhooks_url
p1792
Vhttps://api.github.com/repos/cristibalan/gist_inliner/hooks
p1793
sVhas_downloads
p1794
I01
sVwatchers
p1795
I1
sVname
p1796
Vgist_inliner
p1797
sVlanguage
p1798
VJavaScript
p1799
sVurl
p1800
Vhttps://api.github.com/repos/cristibalan/gist_inliner
p1801
sVcreated_at
p1802
V2009-12-28T22:04:03Z
p1803
sVpushed_at
p1804
V2009-12-28T22:04:24Z
p1805
sVforks_count
p1806
I0
sVdefault_branch
p1807
Vmaster
p1808
sVteams_url
p1809
Vhttps://api.github.com/repos/cristibalan/gist_inliner/teams
p1810
sVtrees_url
p1811
Vhttps://api.github.com/repos/cristibalan/gist_inliner/git/trees{/sha}
p1812
sVbranches_url
p1813
Vhttps://api.github.com/repos/cristibalan/gist_inliner/branches{/branch}
p1814
sVsubscribers_url
p1815
Vhttps://api.github.com/repos/cristibalan/gist_inliner/subscribers
p1816
sVstargazers_url
p1817
Vhttps://api.github.com/repos/cristibalan/gist_inliner/stargazers
p1818
sa(dp1819
Vissues_url
p1820
Vhttps://api.github.com/repos/cristibalan/i18n-js/issues{/number}
p1821
sVstargazers_count
p1822
I1
sVforks_url
p1823
Vhttps://api.github.com/repos/cristibalan/i18n-js/forks
p1824
sVmirror_url
p1825
NsVsubscription_url
p1826
Vhttps://api.github.com/repos/cristibalan/i18n-js/subscription
p1827
sVnotifications_url
p1828
Vhttps://api.github.com/repos/cristibalan/i18n-js/notifications{?since,all,participating}
p1829
sVcollaborators_url
p1830
Vhttps://api.github.com/repos/cristibalan/i18n-js/collaborators{/collaborator}
p1831
sVupdated_at
p1832
V2013-10-28T00:41:34Z
p1833
sVprivate
p1834
I00
sVpulls_url
p1835
Vhttps://api.github.com/repos/cristibalan/i18n-js/pulls{/number}
p1836
sVissue_comment_url
p1837
Vhttps://api.github.com/repos/cristibalan/i18n-js/issues/comments/{number}
p1838
sVlabels_url
p1839
Vhttps://api.github.com/repos/cristibalan/i18n-js/labels{/name}
p1840
sVhas_wiki
p1841
I01
sVfull_name
p1842
Vcristibalan/i18n-js
p1843
sVowner
p1844
(dp1845
Vfollowing_url
p1846
Vhttps://api.github.com/users/cristibalan/following{/other_user}
p1847
sVevents_url
p1848
Vhttps://api.github.com/users/cristibalan/events{/privacy}
p1849
sVorganizations_url
p1850
Vhttps://api.github.com/users/cristibalan/orgs
p1851
sVurl
p1852
Vhttps://api.github.com/users/cristibalan
p1853
sVgists_url
p1854
Vhttps://api.github.com/users/cristibalan/gists{/gist_id}
p1855
sVhtml_url
p1856
Vhttps://github.com/cristibalan
p1857
sVsubscriptions_url
p1858
Vhttps://api.github.com/users/cristibalan/subscriptions
p1859
sVavatar_url
p1860
Vhttps://gravatar.com/avatar/0e8c5f8d88cfc1aeeb59acdcc8aad387?d=https%3A%2F%2Fidenticons.github.com%2Fa0a080f42e6f13b3a2df133f073095dd.png&r=x
p1861
sVrepos_url
p1862
Vhttps://api.github.com/users/cristibalan/repos
p1863
sVreceived_events_url
p1864
Vhttps://api.github.com/users/cristibalan/received_events
p1865
sVgravatar_id
p1866
V0e8c5f8d88cfc1aeeb59acdcc8aad387
p1867
sVstarred_url
p1868
Vhttps://api.github.com/users/cristibalan/starred{/owner}{/repo}
p1869
sVsite_admin
p1870
I00
sVlogin
p1871
Vcristibalan
p1872
sVtype
p1873
VUser
p1874
sVid
p1875
I122
sVfollowers_url
p1876
Vhttps://api.github.com/users/cristibalan/followers
p1877
ssVstatuses_url
p1878
Vhttps://api.github.com/repos/cristibalan/i18n-js/statuses/{sha}
p1879
sVid
p1880
I1046910
sVkeys_url
p1881
Vhttps://api.github.com/repos/cristibalan/i18n-js/keys{/key_id}
p1882
sVdescription
p1883
VIt's a small library to provide the I18n translations on the Javascript. It comes with Rails support.
p1884
sVtags_url
p1885
Vhttps://api.github.com/repos/cristibalan/i18n-js/tags
p1886
sVdownloads_url
p1887
Vhttps://api.github.com/repos/cristibalan/i18n-js/downloads
p1888
sVassignees_url
p1889
Vhttps://api.github.com/repos/cristibalan/i18n-js/assignees{/user}
p1890
sVcontents_url
p1891
Vhttps://api.github.com/repos/cristibalan/i18n-js/contents/{+path}
p1892
sVgit_refs_url
p1893
Vhttps://api.github.com/repos/cristibalan/i18n-js/git/refs{/sha}
p1894
sVopen_issues_count
p1895
I0
sVclone_url
p1896
Vhttps://github.com/cristibalan/i18n-js.git
p1897
sVwatchers_count
p1898
I1
sVgit_tags_url
p1899
Vhttps://api.github.com/repos/cristibalan/i18n-js/git/tags{/sha}
p1900
sVmilestones_url
p1901
Vhttps://api.github.com/repos/cristibalan/i18n-js/milestones{/number}
p1902
sVlanguages_url
p1903
Vhttps://api.github.com/repos/cristibalan/i18n-js/languages
p1904
sVsize
p1905
I228
sVhomepage
p1906
g89
sVfork
p1907
I01
sVcommits_url
p1908
Vhttps://api.github.com/repos/cristibalan/i18n-js/commits{/sha}
p1909
sVreleases_url
p1910
Vhttps://api.github.com/repos/cristibalan/i18n-js/releases{/id}
p1911
sVissue_events_url
p1912
Vhttps://api.github.com/repos/cristibalan/i18n-js/issues/events{/number}
p1913
sVarchive_url
p1914
Vhttps://api.github.com/repos/cristibalan/i18n-js/{archive_format}{/ref}
p1915
sVcomments_url
p1916
Vhttps://api.github.com/repos/cristibalan/i18n-js/comments{/number}
p1917
sVevents_url
p1918
Vhttps://api.github.com/repos/cristibalan/i18n-js/events
p1919
sVcontributors_url
p1920
Vhttps://api.github.com/repos/cristibalan/i18n-js/contributors
p1921
sVhtml_url
p1922
Vhttps://github.com/cristibalan/i18n-js
p1923
sVforks
p1924
I0
sVcompare_url
p1925
Vhttps://api.github.com/repos/cristibalan/i18n-js/compare/{base}...{head}
p1926
sVopen_issues
p1927
I0
sVgit_url
p1928
Vgit://github.com/cristibalan/i18n-js.git
p1929
sVsvn_url
p1930
Vhttps://github.com/cristibalan/i18n-js
p1931
sVmerges_url
p1932
Vhttps://api.github.com/repos/cristibalan/i18n-js/merges
p1933
sVhas_issues
p1934
I00
sVssh_url
p1935
Vgit@github.com:cristibalan/i18n-js.git
p1936
sVblobs_url
p1937
Vhttps://api.github.com/repos/cristibalan/i18n-js/git/blobs{/sha}
p1938
sVmaster_branch
p1939
Vmaster
p1940
sVgit_commits_url
p1941
Vhttps://api.github.com/repos/cristibalan/i18n-js/git/commits{/sha}
p1942
sVhooks_url
p1943
Vhttps://api.github.com/repos/cristibalan/i18n-js/hooks
p1944
sVhas_downloads
p1945
I01
sVwatchers
p1946
I1
sVname
p1947
Vi18n-js
p1948
sVlanguage
p1949
VJavaScript
p1950
sVurl
p1951
Vhttps://api.github.com/repos/cristibalan/i18n-js
p1952
sVcreated_at
p1953
V2010-11-03T03:56:53Z
p1954
sVpushed_at
p1955
V2010-11-03T03:57:54Z
p1956
sVforks_count
p1957
I0
sVdefault_branch
p1958
Vmaster
p1959
sVteams_url
p1960
Vhttps://api.github.com/repos/cristibalan/i18n-js/teams
p1961
sVtrees_url
p1962
Vhttps://api.github.com/repos/cristibalan/i18n-js/git/trees{/sha}
p1963
sVbranches_url
p1964
Vhttps://api.github.com/repos/cristibalan/i18n-js/branches{/branch}
p1965
sVsubscribers_url
p1966
Vhttps://api.github.com/repos/cristibalan/i18n-js/subscribers
p1967
sVstargazers_url
p1968
Vhttps://api.github.com/repos/cristibalan/i18n-js/stargazers
p1969
sa(dp1970
Vissues_url
p1971
Vhttps://api.github.com/repos/cristibalan/kbdhax/issues{/number}
p1972
sVstargazers_count
p1973
I4
sVforks_url
p1974
Vhttps://api.github.com/repos/cristibalan/kbdhax/forks
p1975
sVmirror_url
p1976
NsVsubscription_url
p1977
Vhttps://api.github.com/repos/cristibalan/kbdhax/subscription
p1978
sVnotifications_url
p1979
Vhttps://api.github.com/repos/cristibalan/kbdhax/notifications{?since,all,participating}
p1980
sVcollaborators_url
p1981
Vhttps://api.github.com/repos/cristibalan/kbdhax/collaborators{/collaborator}
p1982
sVupdated_at
p1983
V2013-10-28T00:41:34Z
p1984
sVprivate
p1985
I00
sVpulls_url
p1986
Vhttps://api.github.com/repos/cristibalan/kbdhax/pulls{/number}
p1987
sVissue_comment_url
p1988
Vhttps://api.github.com/repos/cristibalan/kbdhax/issues/comments/{number}
p1989
sVlabels_url
p1990
Vhttps://api.github.com/repos/cristibalan/kbdhax/labels{/name}
p1991
sVhas_wiki
p1992
I01
sVfull_name
p1993
Vcristibalan/kbdhax
p1994
sVowner
p1995
(dp1996
Vfollowing_url
p1997
Vhttps://api.github.com/users/cristibalan/following{/other_user}
p1998
sVevents_url
p1999
Vhttps://api.github.com/users/cristibalan/events{/privacy}
p2000
sVorganizations_url
p2001
Vhttps://api.github.com/users/cristibalan/orgs
p2002
sVurl
p2003
Vhttps://api.github.com/users/cristibalan
p2004
sVgists_url
p2005
Vhttps://api.github.com/users/cristibalan/gists{/gist_id}
p2006
sVhtml_url
p2007
Vhttps://github.com/cristibalan
p2008
sVsubscriptions_url
p2009
Vhttps://api.github.com/users/cristibalan/subscriptions
p2010
sVavatar_url
p2011
Vhttps://gravatar.com/avatar/0e8c5f8d88cfc1aeeb59acdcc8aad387?d=https%3A%2F%2Fidenticons.github.com%2Fa0a080f42e6f13b3a2df133f073095dd.png&r=x
p2012
sVrepos_url
p2013
Vhttps://api.github.com/users/cristibalan/repos
p2014
sVreceived_events_url
p2015
Vhttps://api.github.com/users/cristibalan/received_events
p2016
sVgravatar_id
p2017
V0e8c5f8d88cfc1aeeb59acdcc8aad387
p2018
sVstarred_url
p2019
Vhttps://api.github.com/users/cristibalan/starred{/owner}{/repo}
p2020
sVsite_admin
p2021
I00
sVlogin
p2022
Vcristibalan
p2023
sVtype
p2024
VUser
p2025
sVid
p2026
I122
sVfollowers_url
p2027
Vhttps://api.github.com/users/cristibalan/followers
p2028
ssVstatuses_url
p2029
Vhttps://api.github.com/repos/cristibalan/kbdhax/statuses/{sha}
p2030
sVid
p2031
I352718
sVkeys_url
p2032
Vhttps://api.github.com/repos/cristibalan/kbdhax/keys{/key_id}
p2033
sVdescription
p2034
VChanges right alt key with a control key on a macbook keyboard
p2035
sVtags_url
p2036
Vhttps://api.github.com/repos/cristibalan/kbdhax/tags
p2037
sVdownloads_url
p2038
Vhttps://api.github.com/repos/cristibalan/kbdhax/downloads
p2039
sVassignees_url
p2040
Vhttps://api.github.com/repos/cristibalan/kbdhax/assignees{/user}
p2041
sVcontents_url
p2042
Vhttps://api.github.com/repos/cristibalan/kbdhax/contents/{+path}
p2043
sVgit_refs_url
p2044
Vhttps://api.github.com/repos/cristibalan/kbdhax/git/refs{/sha}
p2045
sVopen_issues_count
p2046
I0
sVclone_url
p2047
Vhttps://github.com/cristibalan/kbdhax.git
p2048
sVwatchers_count
p2049
I4
sVgit_tags_url
p2050
Vhttps://api.github.com/repos/cristibalan/kbdhax/git/tags{/sha}
p2051
sVmilestones_url
p2052
Vhttps://api.github.com/repos/cristibalan/kbdhax/milestones{/number}
p2053
sVlanguages_url
p2054
Vhttps://api.github.com/repos/cristibalan/kbdhax/languages
p2055
sVsize
p2056
I80
sVhomepage
p2057
g89
sVfork
p2058
I00
sVcommits_url
p2059
Vhttps://api.github.com/repos/cristibalan/kbdhax/commits{/sha}
p2060
sVreleases_url
p2061
Vhttps://api.github.com/repos/cristibalan/kbdhax/releases{/id}
p2062
sVissue_events_url
p2063
Vhttps://api.github.com/repos/cristibalan/kbdhax/issues/events{/number}
p2064
sVarchive_url
p2065
Vhttps://api.github.com/repos/cristibalan/kbdhax/{archive_format}{/ref}
p2066
sVcomments_url
p2067
Vhttps://api.github.com/repos/cristibalan/kbdhax/comments{/number}
p2068
sVevents_url
p2069
Vhttps://api.github.com/repos/cristibalan/kbdhax/events
p2070
sVcontributors_url
p2071
Vhttps://api.github.com/repos/cristibalan/kbdhax/contributors
p2072
sVhtml_url
p2073
Vhttps://github.com/cristibalan/kbdhax
p2074
sVforks
p2075
I0
sVcompare_url
p2076
Vhttps://api.github.com/repos/cristibalan/kbdhax/compare/{base}...{head}
p2077
sVopen_issues
p2078
I0
sVgit_url
p2079
Vgit://github.com/cristibalan/kbdhax.git
p2080
sVsvn_url
p2081
Vhttps://github.com/cristibalan/kbdhax
p2082
sVmerges_url
p2083
Vhttps://api.github.com/repos/cristibalan/kbdhax/merges
p2084
sVhas_issues
p2085
I01
sVssh_url
p2086
Vgit@github.com:cristibalan/kbdhax.git
p2087
sVblobs_url
p2088
Vhttps://api.github.com/repos/cristibalan/kbdhax/git/blobs{/sha}
p2089
sVmaster_branch
p2090
Vmaster
p2091
sVgit_commits_url
p2092
Vhttps://api.github.com/repos/cristibalan/kbdhax/git/commits{/sha}
p2093
sVhooks_url
p2094
Vhttps://api.github.com/repos/cristibalan/kbdhax/hooks
p2095
sVhas_downloads
p2096
I01
sVwatchers
p2097
I4
sVname
p2098
Vkbdhax
p2099
sVlanguage
p2100
VC
p2101
sVurl
p2102
Vhttps://api.github.com/repos/cristibalan/kbdhax
p2103
sVcreated_at
p2104
V2009-10-28T13:59:05Z
p2105
sVpushed_at
p2106
V2010-01-22T18:32:52Z
p2107
sVforks_count
p2108
I0
sVdefault_branch
p2109
Vmaster
p2110
sVteams_url
p2111
Vhttps://api.github.com/repos/cristibalan/kbdhax/teams
p2112
sVtrees_url
p2113
Vhttps://api.github.com/repos/cristibalan/kbdhax/git/trees{/sha}
p2114
sVbranches_url
p2115
Vhttps://api.github.com/repos/cristibalan/kbdhax/branches{/branch}
p2116
sVsubscribers_url
p2117
Vhttps://api.github.com/repos/cristibalan/kbdhax/subscribers
p2118
sVstargazers_url
p2119
Vhttps://api.github.com/repos/cristibalan/kbdhax/stargazers
p2120
sa(dp2121
Vissues_url
p2122
Vhttps://api.github.com/repos/cristibalan/macvim/issues{/number}
p2123
sVstargazers_count
p2124
I1
sVforks_url
p2125
Vhttps://api.github.com/repos/cristibalan/macvim/forks
p2126
sVmirror_url
p2127
NsVsubscription_url
p2128
Vhttps://api.github.com/repos/cristibalan/macvim/subscription
p2129
sVnotifications_url
p2130
Vhttps://api.github.com/repos/cristibalan/macvim/notifications{?since,all,participating}
p2131
sVcollaborators_url
p2132
Vhttps://api.github.com/repos/cristibalan/macvim/collaborators{/collaborator}
p2133
sVupdated_at
p2134
V2013-10-28T00:41:34Z
p2135
sVprivate
p2136
I00
sVpulls_url
p2137
Vhttps://api.github.com/repos/cristibalan/macvim/pulls{/number}
p2138
sVissue_comment_url
p2139
Vhttps://api.github.com/repos/cristibalan/macvim/issues/comments/{number}
p2140
sVlabels_url
p2141
Vhttps://api.github.com/repos/cristibalan/macvim/labels{/name}
p2142
sVhas_wiki
p2143
I00
sVfull_name
p2144
Vcristibalan/macvim
p2145
sVowner
p2146
(dp2147
Vfollowing_url
p2148
Vhttps://api.github.com/users/cristibalan/following{/other_user}
p2149
sVevents_url
p2150
Vhttps://api.github.com/users/cristibalan/events{/privacy}
p2151
sVorganizations_url
p2152
Vhttps://api.github.com/users/cristibalan/orgs
p2153
sVurl
p2154
Vhttps://api.github.com/users/cristibalan
p2155
sVgists_url
p2156
Vhttps://api.github.com/users/cristibalan/gists{/gist_id}
p2157
sVhtml_url
p2158
Vhttps://github.com/cristibalan
p2159
sVsubscriptions_url
p2160
Vhttps://api.github.com/users/cristibalan/subscriptions
p2161
sVavatar_url
p2162
Vhttps://gravatar.com/avatar/0e8c5f8d88cfc1aeeb59acdcc8aad387?d=https%3A%2F%2Fidenticons.github.com%2Fa0a080f42e6f13b3a2df133f073095dd.png&r=x
p2163
sVrepos_url
p2164
Vhttps://api.github.com/users/cristibalan/repos
p2165
sVreceived_events_url
p2166
Vhttps://api.github.com/users/cristibalan/received_events
p2167
sVgravatar_id
p2168
V0e8c5f8d88cfc1aeeb59acdcc8aad387
p2169
sVstarred_url
p2170
Vhttps://api.github.com/users/cristibalan/starred{/owner}{/repo}
p2171
sVsite_admin
p2172
I00
sVlogin
p2173
Vcristibalan
p2174
sVtype
p2175
VUser
p2176
sVid
p2177
I122
sVfollowers_url
p2178
Vhttps://api.github.com/users/cristibalan/followers
p2179
ssVstatuses_url
p2180
Vhttps://api.github.com/repos/cristibalan/macvim/statuses/{sha}
p2181
sVid
p2182
I352721
sVkeys_url
p2183
Vhttps://api.github.com/repos/cristibalan/macvim/keys{/key_id}
p2184
sVdescription
p2185
VMirror of the MacVim repo.or.cz repo updated hourly. Backup of my custom changes in branch chelu. Will push -f to it.
p2186
sVtags_url
p2187
Vhttps://api.github.com/repos/cristibalan/macvim/tags
p2188
sVdownloads_url
p2189
Vhttps://api.github.com/repos/cristibalan/macvim/downloads
p2190
sVassignees_url
p2191
Vhttps://api.github.com/repos/cristibalan/macvim/assignees{/user}
p2192
sVcontents_url
p2193
Vhttps://api.github.com/repos/cristibalan/macvim/contents/{+path}
p2194
sVgit_refs_url
p2195
Vhttps://api.github.com/repos/cristibalan/macvim/git/refs{/sha}
p2196
sVopen_issues_count
p2197
I0
sVclone_url
p2198
Vhttps://github.com/cristibalan/macvim.git
p2199
sVwatchers_count
p2200
I1
sVgit_tags_url
p2201
Vhttps://api.github.com/repos/cristibalan/macvim/git/tags{/sha}
p2202
sVmilestones_url
p2203
Vhttps://api.github.com/repos/cristibalan/macvim/milestones{/number}
p2204
sVlanguages_url
p2205
Vhttps://api.github.com/repos/cristibalan/macvim/languages
p2206
sVsize
p2207
I18580
sVhomepage
p2208
Vhttp://code.google.com/p/macvim/wiki/Building
p2209
sVfork
p2210
I01
sVcommits_url
p2211
Vhttps://api.github.com/repos/cristibalan/macvim/commits{/sha}
p2212
sVreleases_url
p2213
Vhttps://api.github.com/repos/cristibalan/macvim/releases{/id}
p2214
sVissue_events_url
p2215
Vhttps://api.github.com/repos/cristibalan/macvim/issues/events{/number}
p2216
sVarchive_url
p2217
Vhttps://api.github.com/repos/cristibalan/macvim/{archive_format}{/ref}
p2218
sVcomments_url
p2219
Vhttps://api.github.com/repos/cristibalan/macvim/comments{/number}
p2220
sVevents_url
p2221
Vhttps://api.github.com/repos/cristibalan/macvim/events
p2222
sVcontributors_url
p2223
Vhttps://api.github.com/repos/cristibalan/macvim/contributors
p2224
sVhtml_url
p2225
Vhttps://github.com/cristibalan/macvim
p2226
sVforks
p2227
I1
sVcompare_url
p2228
Vhttps://api.github.com/repos/cristibalan/macvim/compare/{base}...{head}
p2229
sVopen_issues
p2230
I0
sVgit_url
p2231
Vgit://github.com/cristibalan/macvim.git
p2232
sVsvn_url
p2233
Vhttps://github.com/cristibalan/macvim
p2234
sVmerges_url
p2235
Vhttps://api.github.com/repos/cristibalan/macvim/merges
p2236
sVhas_issues
p2237
I00
sVssh_url
p2238
Vgit@github.com:cristibalan/macvim.git
p2239
sVblobs_url
p2240
Vhttps://api.github.com/repos/cristibalan/macvim/git/blobs{/sha}
p2241
sVmaster_branch
p2242
Vchelu
p2243
sVgit_commits_url
p2244
Vhttps://api.github.com/repos/cristibalan/macvim/git/commits{/sha}
p2245
sVhooks_url
p2246
Vhttps://api.github.com/repos/cristibalan/macvim/hooks
p2247
sVhas_downloads
p2248
I00
sVwatchers
p2249
I1
sVname
p2250
Vmacvim
p2251
sVlanguage
p2252
g2101
sVurl
p2253
Vhttps://api.github.com/repos/cristibalan/macvim
p2254
sVcreated_at
p2255
V2009-10-28T14:01:37Z
p2256
sVpushed_at
p2257
V2010-04-19T05:27:40Z
p2258
sVforks_count
p2259
I1
sVdefault_branch
p2260
Vchelu
p2261
sVteams_url
p2262
Vhttps://api.github.com/repos/cristibalan/macvim/teams
p2263
sVtrees_url
p2264
Vhttps://api.github.com/repos/cristibalan/macvim/git/trees{/sha}
p2265
sVbranches_url
p2266
Vhttps://api.github.com/repos/cristibalan/macvim/branches{/branch}
p2267
sVsubscribers_url
p2268
Vhttps://api.github.com/repos/cristibalan/macvim/subscribers
p2269
sVstargazers_url
p2270
Vhttps://api.github.com/repos/cristibalan/macvim/stargazers
p2271
sa(dp2272
Vissues_url
p2273
Vhttps://api.github.com/repos/cristibalan/mailinho/issues{/number}
p2274
sVstargazers_count
p2275
I2
sVforks_url
p2276
Vhttps://api.github.com/repos/cristibalan/mailinho/forks
p2277
sVmirror_url
p2278
NsVsubscription_url
p2279
Vhttps://api.github.com/repos/cristibalan/mailinho/subscription
p2280
sVnotifications_url
p2281
Vhttps://api.github.com/repos/cristibalan/mailinho/notifications{?since,all,participating}
p2282
sVcollaborators_url
p2283
Vhttps://api.github.com/repos/cristibalan/mailinho/collaborators{/collaborator}
p2284
sVupdated_at
p2285
V2013-10-28T00:41:34Z
p2286
sVprivate
p2287
I00
sVpulls_url
p2288
Vhttps://api.github.com/repos/cristibalan/mailinho/pulls{/number}
p2289
sVissue_comment_url
p2290
Vhttps://api.github.com/repos/cristibalan/mailinho/issues/comments/{number}
p2291
sVlabels_url
p2292
Vhttps://api.github.com/repos/cristibalan/mailinho/labels{/name}
p2293
sVhas_wiki
p2294
I01
sVfull_name
p2295
Vcristibalan/mailinho
p2296
sVowner
p2297
(dp2298
Vfollowing_url
p2299
Vhttps://api.github.com/users/cristibalan/following{/other_user}
p2300
sVevents_url
p2301
Vhttps://api.github.com/users/cristibalan/events{/privacy}
p2302
sVorganizations_url
p2303
Vhttps://api.github.com/users/cristibalan/orgs
p2304
sVurl
p2305
Vhttps://api.github.com/users/cristibalan
p2306
sVgists_url
p2307
Vhttps://api.github.com/users/cristibalan/gists{/gist_id}
p2308
sVhtml_url
p2309
Vhttps://github.com/cristibalan
p2310
sVsubscriptions_url
p2311
Vhttps://api.github.com/users/cristibalan/subscriptions
p2312
sVavatar_url
p2313
Vhttps://gravatar.com/avatar/0e8c5f8d88cfc1aeeb59acdcc8aad387?d=https%3A%2F%2Fidenticons.github.com%2Fa0a080f42e6f13b3a2df133f073095dd.png&r=x
p2314
sVrepos_url
p2315
Vhttps://api.github.com/users/cristibalan/repos
p2316
sVreceived_events_url
p2317
Vhttps://api.github.com/users/cristibalan/received_events
p2318
sVgravatar_id
p2319
V0e8c5f8d88cfc1aeeb59acdcc8aad387
p2320
sVstarred_url
p2321
Vhttps://api.github.com/users/cristibalan/starred{/owner}{/repo}
p2322
sVsite_admin
p2323
I00
sVlogin
p2324
Vcristibalan
p2325
sVtype
p2326
VUser
p2327
sVid
p2328
I122
sVfollowers_url
p2329
Vhttps://api.github.com/users/cristibalan/followers
p2330
ssVstatuses_url
p2331
Vhttps://api.github.com/repos/cristibalan/mailinho/statuses/{sha}
p2332
sVid
p2333
I449798
sVkeys_url
p2334
Vhttps://api.github.com/repos/cristibalan/mailinho/keys{/key_id}
p2335
sVdescription
p2336
Vbroken webmail thingy
p2337
sVtags_url
p2338
Vhttps://api.github.com/repos/cristibalan/mailinho/tags
p2339
sVdownloads_url
p2340
Vhttps://api.github.com/repos/cristibalan/mailinho/downloads
p2341
sVassignees_url
p2342
Vhttps://api.github.com/repos/cristibalan/mailinho/assignees{/user}
p2343
sVcontents_url
p2344
Vhttps://api.github.com/repos/cristibalan/mailinho/contents/{+path}
p2345
sVgit_refs_url
p2346
Vhttps://api.github.com/repos/cristibalan/mailinho/git/refs{/sha}
p2347
sVopen_issues_count
p2348
I0
sVclone_url
p2349
Vhttps://github.com/cristibalan/mailinho.git
p2350
sVwatchers_count
p2351
I2
sVgit_tags_url
p2352
Vhttps://api.github.com/repos/cristibalan/mailinho/git/tags{/sha}
p2353
sVmilestones_url
p2354
Vhttps://api.github.com/repos/cristibalan/mailinho/milestones{/number}
p2355
sVlanguages_url
p2356
Vhttps://api.github.com/repos/cristibalan/mailinho/languages
p2357
sVsize
p2358
I76
sVhomepage
p2359
g89
sVfork
p2360
I00
sVcommits_url
p2361
Vhttps://api.github.com/repos/cristibalan/mailinho/commits{/sha}
p2362
sVreleases_url
p2363
Vhttps://api.github.com/repos/cristibalan/mailinho/releases{/id}
p2364
sVissue_events_url
p2365
Vhttps://api.github.com/repos/cristibalan/mailinho/issues/events{/number}
p2366
sVarchive_url
p2367
Vhttps://api.github.com/repos/cristibalan/mailinho/{archive_format}{/ref}
p2368
sVcomments_url
p2369
Vhttps://api.github.com/repos/cristibalan/mailinho/comments{/number}
p2370
sVevents_url
p2371
Vhttps://api.github.com/repos/cristibalan/mailinho/events
p2372
sVcontributors_url
p2373
Vhttps://api.github.com/repos/cristibalan/mailinho/contributors
p2374
sVhtml_url
p2375
Vhttps://github.com/cristibalan/mailinho
p2376
sVforks
p2377
I0
sVcompare_url
p2378
Vhttps://api.github.com/repos/cristibalan/mailinho/compare/{base}...{head}
p2379
sVopen_issues
p2380
I0
sVgit_url
p2381
Vgit://github.com/cristibalan/mailinho.git
p2382
sVsvn_url
p2383
Vhttps://github.com/cristibalan/mailinho
p2384
sVmerges_url
p2385
Vhttps://api.github.com/repos/cristibalan/mailinho/merges
p2386
sVhas_issues
p2387
I01
sVssh_url
p2388
Vgit@github.com:cristibalan/mailinho.git
p2389
sVblobs_url
p2390
Vhttps://api.github.com/repos/cristibalan/mailinho/git/blobs{/sha}
p2391
sVmaster_branch
p2392
Vmaster
p2393
sVgit_commits_url
p2394
Vhttps://api.github.com/repos/cristibalan/mailinho/git/commits{/sha}
p2395
sVhooks_url
p2396
Vhttps://api.github.com/repos/cristibalan/mailinho/hooks
p2397
sVhas_downloads
p2398
I01
sVwatchers
p2399
I2
sVname
p2400
Vmailinho
p2401
sVlanguage
p2402
VRuby
p2403
sVurl
p2404
Vhttps://api.github.com/repos/cristibalan/mailinho
p2405
sVcreated_at
p2406
V2009-12-27T02:20:05Z
p2407
sVpushed_at
p2408
V2009-12-27T02:20:34Z
p2409
sVforks_count
p2410
I0
sVdefault_branch
p2411
Vmaster
p2412
sVteams_url
p2413
Vhttps://api.github.com/repos/cristibalan/mailinho/teams
p2414
sVtrees_url
p2415
Vhttps://api.github.com/repos/cristibalan/mailinho/git/trees{/sha}
p2416
sVbranches_url
p2417
Vhttps://api.github.com/repos/cristibalan/mailinho/branches{/branch}
p2418
sVsubscribers_url
p2419
Vhttps://api.github.com/repos/cristibalan/mailinho/subscribers
p2420
sVstargazers_url
p2421
Vhttps://api.github.com/repos/cristibalan/mailinho/stargazers
p2422
sa(dp2423
Vissues_url
p2424
Vhttps://api.github.com/repos/cristibalan/rails/issues{/number}
p2425
sVstargazers_count
p2426
I0
sVforks_url
p2427
Vhttps://api.github.com/repos/cristibalan/rails/forks
p2428
sVmirror_url
p2429
NsVsubscription_url
p2430
Vhttps://api.github.com/repos/cristibalan/rails/subscription
p2431
sVnotifications_url
p2432
Vhttps://api.github.com/repos/cristibalan/rails/notifications{?since,all,participating}
p2433
sVcollaborators_url
p2434
Vhttps://api.github.com/repos/cristibalan/rails/collaborators{/collaborator}
p2435
sVupdated_at
p2436
V2014-01-09T16:31:37Z
p2437
sVprivate
p2438
I00
sVpulls_url
p2439
Vhttps://api.github.com/repos/cristibalan/rails/pulls{/number}
p2440
sVissue_comment_url
p2441
Vhttps://api.github.com/repos/cristibalan/rails/issues/comments/{number}
p2442
sVlabels_url
p2443
Vhttps://api.github.com/repos/cristibalan/rails/labels{/name}
p2444
sVhas_wiki
p2445
I00
sVfull_name
p2446
Vcristibalan/rails
p2447
sVowner
p2448
(dp2449
Vfollowing_url
p2450
Vhttps://api.github.com/users/cristibalan/following{/other_user}
p2451
sVevents_url
p2452
Vhttps://api.github.com/users/cristibalan/events{/privacy}
p2453
sVorganizations_url
p2454
Vhttps://api.github.com/users/cristibalan/orgs
p2455
sVurl
p2456
Vhttps://api.github.com/users/cristibalan
p2457
sVgists_url
p2458
Vhttps://api.github.com/users/cristibalan/gists{/gist_id}
p2459
sVhtml_url
p2460
Vhttps://github.com/cristibalan
p2461
sVsubscriptions_url
p2462
Vhttps://api.github.com/users/cristibalan/subscriptions
p2463
sVavatar_url
p2464
Vhttps://gravatar.com/avatar/0e8c5f8d88cfc1aeeb59acdcc8aad387?d=https%3A%2F%2Fidenticons.github.com%2Fa0a080f42e6f13b3a2df133f073095dd.png&r=x
p2465
sVrepos_url
p2466
Vhttps://api.github.com/users/cristibalan/repos
p2467
sVreceived_events_url
p2468
Vhttps://api.github.com/users/cristibalan/received_events
p2469
sVgravatar_id
p2470
V0e8c5f8d88cfc1aeeb59acdcc8aad387
p2471
sVstarred_url
p2472
Vhttps://api.github.com/users/cristibalan/starred{/owner}{/repo}
p2473
sVsite_admin
p2474
I00
sVlogin
p2475
Vcristibalan
p2476
sVtype
p2477
VUser
p2478
sVid
p2479
I122
sVfollowers_url
p2480
Vhttps://api.github.com/users/cristibalan/followers
p2481
ssVstatuses_url
p2482
Vhttps://api.github.com/repos/cristibalan/rails/statuses/{sha}
p2483
sVid
p2484
I15772187
sVkeys_url
p2485
Vhttps://api.github.com/repos/cristibalan/rails/keys{/key_id}
p2486
sVdescription
p2487
VRuby on Rails
p2488
sVtags_url
p2489
Vhttps://api.github.com/repos/cristibalan/rails/tags
p2490
sVdownloads_url
p2491
Vhttps://api.github.com/repos/cristibalan/rails/downloads
p2492
sVassignees_url
p2493
Vhttps://api.github.com/repos/cristibalan/rails/assignees{/user}
p2494
sVcontents_url
p2495
Vhttps://api.github.com/repos/cristibalan/rails/contents/{+path}
p2496
sVgit_refs_url
p2497
Vhttps://api.github.com/repos/cristibalan/rails/git/refs{/sha}
p2498
sVopen_issues_count
p2499
I0
sVclone_url
p2500
Vhttps://github.com/cristibalan/rails.git
p2501
sVwatchers_count
p2502
I0
sVgit_tags_url
p2503
Vhttps://api.github.com/repos/cristibalan/rails/git/tags{/sha}
p2504
sVmilestones_url
p2505
Vhttps://api.github.com/repos/cristibalan/rails/milestones{/number}
p2506
sVlanguages_url
p2507
Vhttps://api.github.com/repos/cristibalan/rails/languages
p2508
sVsize
p2509
I106708
sVhomepage
p2510
Vhttp://rubyonrails.org
p2511
sVfork
p2512
I01
sVcommits_url
p2513
Vhttps://api.github.com/repos/cristibalan/rails/commits{/sha}
p2514
sVreleases_url
p2515
Vhttps://api.github.com/repos/cristibalan/rails/releases{/id}
p2516
sVissue_events_url
p2517
Vhttps://api.github.com/repos/cristibalan/rails/issues/events{/number}
p2518
sVarchive_url
p2519
Vhttps://api.github.com/repos/cristibalan/rails/{archive_format}{/ref}
p2520
sVcomments_url
p2521
Vhttps://api.github.com/repos/cristibalan/rails/comments{/number}
p2522
sVevents_url
p2523
Vhttps://api.github.com/repos/cristibalan/rails/events
p2524
sVcontributors_url
p2525
Vhttps://api.github.com/repos/cristibalan/rails/contributors
p2526
sVhtml_url
p2527
Vhttps://github.com/cristibalan/rails
p2528
sVforks
p2529
I0
sVcompare_url
p2530
Vhttps://api.github.com/repos/cristibalan/rails/compare/{base}...{head}
p2531
sVopen_issues
p2532
I0
sVgit_url
p2533
Vgit://github.com/cristibalan/rails.git
p2534
sVsvn_url
p2535
Vhttps://github.com/cristibalan/rails
p2536
sVmerges_url
p2537
Vhttps://api.github.com/repos/cristibalan/rails/merges
p2538
sVhas_issues
p2539
I00
sVssh_url
p2540
Vgit@github.com:cristibalan/rails.git
p2541
sVblobs_url
p2542
Vhttps://api.github.com/repos/cristibalan/rails/git/blobs{/sha}
p2543
sVmaster_branch
p2544
Vmaster
p2545
sVgit_commits_url
p2546
Vhttps://api.github.com/repos/cristibalan/rails/git/commits{/sha}
p2547
sVhooks_url
p2548
Vhttps://api.github.com/repos/cristibalan/rails/hooks
p2549
sVhas_downloads
p2550
I01
sVwatchers
p2551
I0
sVname
p2552
Vrails
p2553
sVlanguage
p2554
VRuby
p2555
sVurl
p2556
Vhttps://api.github.com/repos/cristibalan/rails
p2557
sVcreated_at
p2558
V2014-01-09T16:31:02Z
p2559
sVpushed_at
p2560
V2014-01-09T02:42:09Z
p2561
sVforks_count
p2562
I0
sVdefault_branch
p2563
Vmaster
p2564
sVteams_url
p2565
Vhttps://api.github.com/repos/cristibalan/rails/teams
p2566
sVtrees_url
p2567
Vhttps://api.github.com/repos/cristibalan/rails/git/trees{/sha}
p2568
sVbranches_url
p2569
Vhttps://api.github.com/repos/cristibalan/rails/branches{/branch}
p2570
sVsubscribers_url
p2571
Vhttps://api.github.com/repos/cristibalan/rails/subscribers
p2572
sVstargazers_url
p2573
Vhttps://api.github.com/repos/cristibalan/rails/stargazers
p2574
sa(dp2575
Vissues_url
p2576
Vhttps://api.github.com/repos/cristibalan/reportable/issues{/number}
p2577
sVstargazers_count
p2578
I0
sVforks_url
p2579
Vhttps://api.github.com/repos/cristibalan/reportable/forks
p2580
sVmirror_url
p2581
NsVsubscription_url
p2582
Vhttps://api.github.com/repos/cristibalan/reportable/subscription
p2583
sVnotifications_url
p2584
Vhttps://api.github.com/repos/cristibalan/reportable/notifications{?since,all,participating}
p2585
sVcollaborators_url
p2586
Vhttps://api.github.com/repos/cristibalan/reportable/collaborators{/collaborator}
p2587
sVupdated_at
p2588
V2014-01-13T10:59:19Z
p2589
sVprivate
p2590
I00
sVpulls_url
p2591
Vhttps://api.github.com/repos/cristibalan/reportable/pulls{/number}
p2592
sVissue_comment_url
p2593
Vhttps://api.github.com/repos/cristibalan/reportable/issues/comments/{number}
p2594
sVlabels_url
p2595
Vhttps://api.github.com/repos/cristibalan/reportable/labels{/name}
p2596
sVhas_wiki
p2597
I01
sVfull_name
p2598
Vcristibalan/reportable
p2599
sVowner
p2600
(dp2601
Vfollowing_url
p2602
Vhttps://api.github.com/users/cristibalan/following{/other_user}
p2603
sVevents_url
p2604
Vhttps://api.github.com/users/cristibalan/events{/privacy}
p2605
sVorganizations_url
p2606
Vhttps://api.github.com/users/cristibalan/orgs
p2607
sVurl
p2608
Vhttps://api.github.com/users/cristibalan
p2609
sVgists_url
p2610
Vhttps://api.github.com/users/cristibalan/gists{/gist_id}
p2611
sVhtml_url
p2612
Vhttps://github.com/cristibalan
p2613
sVsubscriptions_url
p2614
Vhttps://api.github.com/users/cristibalan/subscriptions
p2615
sVavatar_url
p2616
Vhttps://gravatar.com/avatar/0e8c5f8d88cfc1aeeb59acdcc8aad387?d=https%3A%2F%2Fidenticons.github.com%2Fa0a080f42e6f13b3a2df133f073095dd.png&r=x
p2617
sVrepos_url
p2618
Vhttps://api.github.com/users/cristibalan/repos
p2619
sVreceived_events_url
p2620
Vhttps://api.github.com/users/cristibalan/received_events
p2621
sVgravatar_id
p2622
V0e8c5f8d88cfc1aeeb59acdcc8aad387
p2623
sVstarred_url
p2624
Vhttps://api.github.com/users/cristibalan/starred{/owner}{/repo}
p2625
sVsite_admin
p2626
I00
sVlogin
p2627
Vcristibalan
p2628
sVtype
p2629
VUser
p2630
sVid
p2631
I122
sVfollowers_url
p2632
Vhttps://api.github.com/users/cristibalan/followers
p2633
ssVstatuses_url
p2634
Vhttps://api.github.com/repos/cristibalan/reportable/statuses/{sha}
p2635
sVid
p2636
I7226296
sVkeys_url
p2637
Vhttps://api.github.com/repos/cristibalan/reportable/keys{/key_id}
p2638
sVdescription
p2639
VA plugin that makes basic reporting for rails models dead simple. Formally known as reports_as_sparkline.
p2640
sVtags_url
p2641
Vhttps://api.github.com/repos/cristibalan/reportable/tags
p2642
sVdownloads_url
p2643
Vhttps://api.github.com/repos/cristibalan/reportable/downloads
p2644
sVassignees_url
p2645
Vhttps://api.github.com/repos/cristibalan/reportable/assignees{/user}
p2646
sVcontents_url
p2647
Vhttps://api.github.com/repos/cristibalan/reportable/contents/{+path}
p2648
sVgit_refs_url
p2649
Vhttps://api.github.com/repos/cristibalan/reportable/git/refs{/sha}
p2650
sVopen_issues_count
p2651
I0
sVclone_url
p2652
Vhttps://github.com/cristibalan/reportable.git
p2653
sVwatchers_count
p2654
I0
sVgit_tags_url
p2655
Vhttps://api.github.com/repos/cristibalan/reportable/git/tags{/sha}
p2656
sVmilestones_url
p2657
Vhttps://api.github.com/repos/cristibalan/reportable/milestones{/number}
p2658
sVlanguages_url
p2659
Vhttps://api.github.com/repos/cristibalan/reportable/languages
p2660
sVsize
p2661
I953
sVhomepage
p2662
Vhttp://saulabs.net/projects/reportable
p2663
sVfork
p2664
I01
sVcommits_url
p2665
Vhttps://api.github.com/repos/cristibalan/reportable/commits{/sha}
p2666
sVreleases_url
p2667
Vhttps://api.github.com/repos/cristibalan/reportable/releases{/id}
p2668
sVissue_events_url
p2669
Vhttps://api.github.com/repos/cristibalan/reportable/issues/events{/number}
p2670
sVarchive_url
p2671
Vhttps://api.github.com/repos/cristibalan/reportable/{archive_format}{/ref}
p2672
sVcomments_url
p2673
Vhttps://api.github.com/repos/cristibalan/reportable/comments{/number}
p2674
sVevents_url
p2675
Vhttps://api.github.com/repos/cristibalan/reportable/events
p2676
sVcontributors_url
p2677
Vhttps://api.github.com/repos/cristibalan/reportable/contributors
p2678
sVhtml_url
p2679
Vhttps://github.com/cristibalan/reportable
p2680
sVforks
p2681
I0
sVcompare_url
p2682
Vhttps://api.github.com/repos/cristibalan/reportable/compare/{base}...{head}
p2683
sVopen_issues
p2684
I0
sVgit_url
p2685
Vgit://github.com/cristibalan/reportable.git
p2686
sVsvn_url
p2687
Vhttps://github.com/cristibalan/reportable
p2688
sVmerges_url
p2689
Vhttps://api.github.com/repos/cristibalan/reportable/merges
p2690
sVhas_issues
p2691
I00
sVssh_url
p2692
Vgit@github.com:cristibalan/reportable.git
p2693
sVblobs_url
p2694
Vhttps://api.github.com/repos/cristibalan/reportable/git/blobs{/sha}
p2695
sVmaster_branch
p2696
Vmaster
p2697
sVgit_commits_url
p2698
Vhttps://api.github.com/repos/cristibalan/reportable/git/commits{/sha}
p2699
sVhooks_url
p2700
Vhttps://api.github.com/repos/cristibalan/reportable/hooks
p2701
sVhas_downloads
p2702
I01
sVwatchers
p2703
I0
sVname
p2704
Vreportable
p2705
sVlanguage
p2706
VRuby
p2707
sVurl
p2708
Vhttps://api.github.com/repos/cristibalan/reportable
p2709
sVcreated_at
p2710
V2012-12-18T16:13:23Z
p2711
sVpushed_at
p2712
V2014-01-13T10:59:19Z
p2713
sVforks_count
p2714
I0
sVdefault_branch
p2715
Vmaster
p2716
sVteams_url
p2717
Vhttps://api.github.com/repos/cristibalan/reportable/teams
p2718
sVtrees_url
p2719
Vhttps://api.github.com/repos/cristibalan/reportable/git/trees{/sha}
p2720
sVbranches_url
p2721
Vhttps://api.github.com/repos/cristibalan/reportable/branches{/branch}
p2722
sVsubscribers_url
p2723
Vhttps://api.github.com/repos/cristibalan/reportable/subscribers
p2724
sVstargazers_url
p2725
Vhttps://api.github.com/repos/cristibalan/reportable/stargazers
p2726
sa(dp2727
Vissues_url
p2728
Vhttps://api.github.com/repos/cristibalan/skittlish/issues{/number}
p2729
sVstargazers_count
p2730
I2
sVforks_url
p2731
Vhttps://api.github.com/repos/cristibalan/skittlish/forks
p2732
sVmirror_url
p2733
NsVsubscription_url
p2734
Vhttps://api.github.com/repos/cristibalan/skittlish/subscription
p2735
sVnotifications_url
p2736
Vhttps://api.github.com/repos/cristibalan/skittlish/notifications{?since,all,participating}
p2737
sVcollaborators_url
p2738
Vhttps://api.github.com/repos/cristibalan/skittlish/collaborators{/collaborator}
p2739
sVupdated_at
p2740
V2013-10-31T18:07:17Z
p2741
sVprivate
p2742
I00
sVpulls_url
p2743
Vhttps://api.github.com/repos/cristibalan/skittlish/pulls{/number}
p2744
sVissue_comment_url
p2745
Vhttps://api.github.com/repos/cristibalan/skittlish/issues/comments/{number}
p2746
sVlabels_url
p2747
Vhttps://api.github.com/repos/cristibalan/skittlish/labels{/name}
p2748
sVhas_wiki
p2749
I01
sVfull_name
p2750
Vcristibalan/skittlish
p2751
sVowner
p2752
(dp2753
Vfollowing_url
p2754
Vhttps://api.github.com/users/cristibalan/following{/other_user}
p2755
sVevents_url
p2756
Vhttps://api.github.com/users/cristibalan/events{/privacy}
p2757
sVorganizations_url
p2758
Vhttps://api.github.com/users/cristibalan/orgs
p2759
sVurl
p2760
Vhttps://api.github.com/users/cristibalan
p2761
sVgists_url
p2762
Vhttps://api.github.com/users/cristibalan/gists{/gist_id}
p2763
sVhtml_url
p2764
Vhttps://github.com/cristibalan
p2765
sVsubscriptions_url
p2766
Vhttps://api.github.com/users/cristibalan/subscriptions
p2767
sVavatar_url
p2768
Vhttps://gravatar.com/avatar/0e8c5f8d88cfc1aeeb59acdcc8aad387?d=https%3A%2F%2Fidenticons.github.com%2Fa0a080f42e6f13b3a2df133f073095dd.png&r=x
p2769
sVrepos_url
p2770
Vhttps://api.github.com/users/cristibalan/repos
p2771
sVreceived_events_url
p2772
Vhttps://api.github.com/users/cristibalan/received_events
p2773
sVgravatar_id
p2774
V0e8c5f8d88cfc1aeeb59acdcc8aad387
p2775
sVstarred_url
p2776
Vhttps://api.github.com/users/cristibalan/starred{/owner}{/repo}
p2777
sVsite_admin
p2778
I00
sVlogin
p2779
Vcristibalan
p2780
sVtype
p2781
VUser
p2782
sVid
p2783
I122
sVfollowers_url
p2784
Vhttps://api.github.com/users/cristibalan/followers
p2785
ssVstatuses_url
p2786
Vhttps://api.github.com/repos/cristibalan/skittlish/statuses/{sha}
p2787
sVid
p2788
I106439
sVkeys_url
p2789
Vhttps://api.github.com/repos/cristibalan/skittlish/keys{/key_id}
p2790
sVdescription
p2791
VA candy coloured theme for mephisto. Comes in 7 flavours! (orange, blue, green, pink, cyan, red, violet)
p2792
sVtags_url
p2793
Vhttps://api.github.com/repos/cristibalan/skittlish/tags
p2794
sVdownloads_url
p2795
Vhttps://api.github.com/repos/cristibalan/skittlish/downloads
p2796
sVassignees_url
p2797
Vhttps://api.github.com/repos/cristibalan/skittlish/assignees{/user}
p2798
sVcontents_url
p2799
Vhttps://api.github.com/repos/cristibalan/skittlish/contents/{+path}
p2800
sVgit_refs_url
p2801
Vhttps://api.github.com/repos/cristibalan/skittlish/git/refs{/sha}
p2802
sVopen_issues_count
p2803
I0
sVclone_url
p2804
Vhttps://github.com/cristibalan/skittlish.git
p2805
sVwatchers_count
p2806
I2
sVgit_tags_url
p2807
Vhttps://api.github.com/repos/cristibalan/skittlish/git/tags{/sha}
p2808
sVmilestones_url
p2809
Vhttps://api.github.com/repos/cristibalan/skittlish/milestones{/number}
p2810
sVlanguages_url
p2811
Vhttps://api.github.com/repos/cristibalan/skittlish/languages
p2812
sVsize
p2813
I131
sVhomepage
p2814
Vhttp://evil.che.lu/projects/skittlish
p2815
sVfork
p2816
I00
sVcommits_url
p2817
Vhttps://api.github.com/repos/cristibalan/skittlish/commits{/sha}
p2818
sVreleases_url
p2819
Vhttps://api.github.com/repos/cristibalan/skittlish/releases{/id}
p2820
sVissue_events_url
p2821
Vhttps://api.github.com/repos/cristibalan/skittlish/issues/events{/number}
p2822
sVarchive_url
p2823
Vhttps://api.github.com/repos/cristibalan/skittlish/{archive_format}{/ref}
p2824
sVcomments_url
p2825
Vhttps://api.github.com/repos/cristibalan/skittlish/comments{/number}
p2826
sVevents_url
p2827
Vhttps://api.github.com/repos/cristibalan/skittlish/events
p2828
sVcontributors_url
p2829
Vhttps://api.github.com/repos/cristibalan/skittlish/contributors
p2830
sVhtml_url
p2831
Vhttps://github.com/cristibalan/skittlish
p2832
sVforks
p2833
I1
sVcompare_url
p2834
Vhttps://api.github.com/repos/cristibalan/skittlish/compare/{base}...{head}
p2835
sVopen_issues
p2836
I0
sVgit_url
p2837
Vgit://github.com/cristibalan/skittlish.git
p2838
sVsvn_url
p2839
Vhttps://github.com/cristibalan/skittlish
p2840
sVmerges_url
p2841
Vhttps://api.github.com/repos/cristibalan/skittlish/merges
p2842
sVhas_issues
p2843
I01
sVssh_url
p2844
Vgit@github.com:cristibalan/skittlish.git
p2845
sVblobs_url
p2846
Vhttps://api.github.com/repos/cristibalan/skittlish/git/blobs{/sha}
p2847
sVmaster_branch
p2848
Vmaster
p2849
sVgit_commits_url
p2850
Vhttps://api.github.com/repos/cristibalan/skittlish/git/commits{/sha}
p2851
sVhooks_url
p2852
Vhttps://api.github.com/repos/cristibalan/skittlish/hooks
p2853
sVhas_downloads
p2854
I01
sVwatchers
p2855
I2
sVname
p2856
Vskittlish
p2857
sVlanguage
p2858
VJavaScript
p2859
sVurl
p2860
Vhttps://api.github.com/repos/cristibalan/skittlish
p2861
sVcreated_at
p2862
V2009-01-13T09:24:07Z
p2863
sVpushed_at
p2864
V2009-01-16T23:06:07Z
p2865
sVforks_count
p2866
I1
sVdefault_branch
p2867
Vmaster
p2868
sVteams_url
p2869
Vhttps://api.github.com/repos/cristibalan/skittlish/teams
p2870
sVtrees_url
p2871
Vhttps://api.github.com/repos/cristibalan/skittlish/git/trees{/sha}
p2872
sVbranches_url
p2873
Vhttps://api.github.com/repos/cristibalan/skittlish/branches{/branch}
p2874
sVsubscribers_url
p2875
Vhttps://api.github.com/repos/cristibalan/skittlish/subscribers
p2876
sVstargazers_url
p2877
Vhttps://api.github.com/repos/cristibalan/skittlish/stargazers
p2878
sa(dp2879
Vissues_url
p2880
Vhttps://api.github.com/repos/cristibalan/Sonny/issues{/number}
p2881
sVstargazers_count
p2882
I1
sVforks_url
p2883
Vhttps://api.github.com/repos/cristibalan/Sonny/forks
p2884
sVmirror_url
p2885
NsVsubscription_url
p2886
Vhttps://api.github.com/repos/cristibalan/Sonny/subscription
p2887
sVnotifications_url
p2888
Vhttps://api.github.com/repos/cristibalan/Sonny/notifications{?since,all,participating}
p2889
sVcollaborators_url
p2890
Vhttps://api.github.com/repos/cristibalan/Sonny/collaborators{/collaborator}
p2891
sVupdated_at
p2892
V2013-12-09T15:30:44Z
p2893
sVprivate
p2894
I00
sVpulls_url
p2895
Vhttps://api.github.com/repos/cristibalan/Sonny/pulls{/number}
p2896
sVissue_comment_url
p2897
Vhttps://api.github.com/repos/cristibalan/Sonny/issues/comments/{number}
p2898
sVlabels_url
p2899
Vhttps://api.github.com/repos/cristibalan/Sonny/labels{/name}
p2900
sVhas_wiki
p2901
I01
sVfull_name
p2902
Vcristibalan/Sonny
p2903
sVowner
p2904
(dp2905
Vfollowing_url
p2906
Vhttps://api.github.com/users/cristibalan/following{/other_user}
p2907
sVevents_url
p2908
Vhttps://api.github.com/users/cristibalan/events{/privacy}
p2909
sVorganizations_url
p2910
Vhttps://api.github.com/users/cristibalan/orgs
p2911
sVurl
p2912
Vhttps://api.github.com/users/cristibalan
p2913
sVgists_url
p2914
Vhttps://api.github.com/users/cristibalan/gists{/gist_id}
p2915
sVhtml_url
p2916
Vhttps://github.com/cristibalan
p2917
sVsubscriptions_url
p2918
Vhttps://api.github.com/users/cristibalan/subscriptions
p2919
sVavatar_url
p2920
Vhttps://gravatar.com/avatar/0e8c5f8d88cfc1aeeb59acdcc8aad387?d=https%3A%2F%2Fidenticons.github.com%2Fa0a080f42e6f13b3a2df133f073095dd.png&r=x
p2921
sVrepos_url
p2922
Vhttps://api.github.com/users/cristibalan/repos
p2923
sVreceived_events_url
p2924
Vhttps://api.github.com/users/cristibalan/received_events
p2925
sVgravatar_id
p2926
V0e8c5f8d88cfc1aeeb59acdcc8aad387
p2927
sVstarred_url
p2928
Vhttps://api.github.com/users/cristibalan/starred{/owner}{/repo}
p2929
sVsite_admin
p2930
I00
sVlogin
p2931
Vcristibalan
p2932
sVtype
p2933
VUser
p2934
sVid
p2935
I122
sVfollowers_url
p2936
Vhttps://api.github.com/users/cristibalan/followers
p2937
ssVstatuses_url
p2938
Vhttps://api.github.com/repos/cristibalan/Sonny/statuses/{sha}
p2939
sVid
p2940
I676508
sVkeys_url
p2941
Vhttps://api.github.com/repos/cristibalan/Sonny/keys{/key_id}
p2942
sVdescription
p2943
VWeather by mobster. Doesn't work yet
p2944
sVtags_url
p2945
Vhttps://api.github.com/repos/cristibalan/Sonny/tags
p2946
sVdownloads_url
p2947
Vhttps://api.github.com/repos/cristibalan/Sonny/downloads
p2948
sVassignees_url
p2949
Vhttps://api.github.com/repos/cristibalan/Sonny/assignees{/user}
p2950
sVcontents_url
p2951
Vhttps://api.github.com/repos/cristibalan/Sonny/contents/{+path}
p2952
sVgit_refs_url
p2953
Vhttps://api.github.com/repos/cristibalan/Sonny/git/refs{/sha}
p2954
sVopen_issues_count
p2955
I0
sVclone_url
p2956
Vhttps://github.com/cristibalan/Sonny.git
p2957
sVwatchers_count
p2958
I1
sVgit_tags_url
p2959
Vhttps://api.github.com/repos/cristibalan/Sonny/git/tags{/sha}
p2960
sVmilestones_url
p2961
Vhttps://api.github.com/repos/cristibalan/Sonny/milestones{/number}
p2962
sVlanguages_url
p2963
Vhttps://api.github.com/repos/cristibalan/Sonny/languages
p2964
sVsize
p2965
I112
sVhomepage
p2966
g89
sVfork
p2967
I00
sVcommits_url
p2968
Vhttps://api.github.com/repos/cristibalan/Sonny/commits{/sha}
p2969
sVreleases_url
p2970
Vhttps://api.github.com/repos/cristibalan/Sonny/releases{/id}
p2971
sVissue_events_url
p2972
Vhttps://api.github.com/repos/cristibalan/Sonny/issues/events{/number}
p2973
sVarchive_url
p2974
Vhttps://api.github.com/repos/cristibalan/Sonny/{archive_format}{/ref}
p2975
sVcomments_url
p2976
Vhttps://api.github.com/repos/cristibalan/Sonny/comments{/number}
p2977
sVevents_url
p2978
Vhttps://api.github.com/repos/cristibalan/Sonny/events
p2979
sVcontributors_url
p2980
Vhttps://api.github.com/repos/cristibalan/Sonny/contributors
p2981
sVhtml_url
p2982
Vhttps://github.com/cristibalan/Sonny
p2983
sVforks
p2984
I0
sVcompare_url
p2985
Vhttps://api.github.com/repos/cristibalan/Sonny/compare/{base}...{head}
p2986
sVopen_issues
p2987
I0
sVgit_url
p2988
Vgit://github.com/cristibalan/Sonny.git
p2989
sVsvn_url
p2990
Vhttps://github.com/cristibalan/Sonny
p2991
sVmerges_url
p2992
Vhttps://api.github.com/repos/cristibalan/Sonny/merges
p2993
sVhas_issues
p2994
I01
sVssh_url
p2995
Vgit@github.com:cristibalan/Sonny.git
p2996
sVblobs_url
p2997
Vhttps://api.github.com/repos/cristibalan/Sonny/git/blobs{/sha}
p2998
sVmaster_branch
p2999
Vmaster
p3000
sVgit_commits_url
p3001
Vhttps://api.github.com/repos/cristibalan/Sonny/git/commits{/sha}
p3002
sVhooks_url
p3003
Vhttps://api.github.com/repos/cristibalan/Sonny/hooks
p3004
sVhas_downloads
p3005
I01
sVwatchers
p3006
I1
sVname
p3007
VSonny
p3008
sVlanguage
p3009
VRuby
p3010
sVurl
p3011
Vhttps://api.github.com/repos/cristibalan/Sonny
p3012
sVcreated_at
p3013
V2010-05-20T05:49:28Z
p3014
sVpushed_at
p3015
V2010-05-20T05:50:08Z
p3016
sVforks_count
p3017
I0
sVdefault_branch
p3018
Vmaster
p3019
sVteams_url
p3020
Vhttps://api.github.com/repos/cristibalan/Sonny/teams
p3021
sVtrees_url
p3022
Vhttps://api.github.com/repos/cristibalan/Sonny/git/trees{/sha}
p3023
sVbranches_url
p3024
Vhttps://api.github.com/repos/cristibalan/Sonny/branches{/branch}
p3025
sVsubscribers_url
p3026
Vhttps://api.github.com/repos/cristibalan/Sonny/subscribers
p3027
sVstargazers_url
p3028
Vhttps://api.github.com/repos/cristibalan/Sonny/stargazers
p3029
sa(dp3030
Vissues_url
p3031
Vhttps://api.github.com/repos/cristibalan/thorax/issues{/number}
p3032
sVstargazers_count
p3033
I1
sVforks_url
p3034
Vhttps://api.github.com/repos/cristibalan/thorax/forks
p3035
sVmirror_url
p3036
NsVsubscription_url
p3037
Vhttps://api.github.com/repos/cristibalan/thorax/subscription
p3038
sVnotifications_url
p3039
Vhttps://api.github.com/repos/cristibalan/thorax/notifications{?since,all,participating}
p3040
sVcollaborators_url
p3041
Vhttps://api.github.com/repos/cristibalan/thorax/collaborators{/collaborator}
p3042
sVupdated_at
p3043
V2013-10-28T00:41:34Z
p3044
sVprivate
p3045
I00
sVpulls_url
p3046
Vhttps://api.github.com/repos/cristibalan/thorax/pulls{/number}
p3047
sVissue_comment_url
p3048
Vhttps://api.github.com/repos/cristibalan/thorax/issues/comments/{number}
p3049
sVlabels_url
p3050
Vhttps://api.github.com/repos/cristibalan/thorax/labels{/name}
p3051
sVhas_wiki
p3052
I01
sVfull_name
p3053
Vcristibalan/thorax
p3054
sVowner
p3055
(dp3056
Vfollowing_url
p3057
Vhttps://api.github.com/users/cristibalan/following{/other_user}
p3058
sVevents_url
p3059
Vhttps://api.github.com/users/cristibalan/events{/privacy}
p3060
sVorganizations_url
p3061
Vhttps://api.github.com/users/cristibalan/orgs
p3062
sVurl
p3063
Vhttps://api.github.com/users/cristibalan
p3064
sVgists_url
p3065
Vhttps://api.github.com/users/cristibalan/gists{/gist_id}
p3066
sVhtml_url
p3067
Vhttps://github.com/cristibalan
p3068
sVsubscriptions_url
p3069
Vhttps://api.github.com/users/cristibalan/subscriptions
p3070
sVavatar_url
p3071
Vhttps://gravatar.com/avatar/0e8c5f8d88cfc1aeeb59acdcc8aad387?d=https%3A%2F%2Fidenticons.github.com%2Fa0a080f42e6f13b3a2df133f073095dd.png&r=x
p3072
sVrepos_url
p3073
Vhttps://api.github.com/users/cristibalan/repos
p3074
sVreceived_events_url
p3075
Vhttps://api.github.com/users/cristibalan/received_events
p3076
sVgravatar_id
p3077
V0e8c5f8d88cfc1aeeb59acdcc8aad387
p3078
sVstarred_url
p3079
Vhttps://api.github.com/users/cristibalan/starred{/owner}{/repo}
p3080
sVsite_admin
p3081
I00
sVlogin
p3082
Vcristibalan
p3083
sVtype
p3084
VUser
p3085
sVid
p3086
I122
sVfollowers_url
p3087
Vhttps://api.github.com/users/cristibalan/followers
p3088
ssVstatuses_url
p3089
Vhttps://api.github.com/repos/cristibalan/thorax/statuses/{sha}
p3090
sVid
p3091
I3867639
sVkeys_url
p3092
Vhttps://api.github.com/repos/cristibalan/thorax/keys{/key_id}
p3093
sVdescription
p3094
VStrengthening your Backbone
p3095
sVtags_url
p3096
Vhttps://api.github.com/repos/cristibalan/thorax/tags
p3097
sVdownloads_url
p3098
Vhttps://api.github.com/repos/cristibalan/thorax/downloads
p3099
sVassignees_url
p3100
Vhttps://api.github.com/repos/cristibalan/thorax/assignees{/user}
p3101
sVcontents_url
p3102
Vhttps://api.github.com/repos/cristibalan/thorax/contents/{+path}
p3103
sVgit_refs_url
p3104
Vhttps://api.github.com/repos/cristibalan/thorax/git/refs{/sha}
p3105
sVopen_issues_count
p3106
I0
sVclone_url
p3107
Vhttps://github.com/cristibalan/thorax.git
p3108
sVwatchers_count
p3109
I1
sVgit_tags_url
p3110
Vhttps://api.github.com/repos/cristibalan/thorax/git/tags{/sha}
p3111
sVmilestones_url
p3112
Vhttps://api.github.com/repos/cristibalan/thorax/milestones{/number}
p3113
sVlanguages_url
p3114
Vhttps://api.github.com/repos/cristibalan/thorax/languages
p3115
sVsize
p3116
I855
sVhomepage
p3117
Vhttp://walmartlabs.github.com/thorax
p3118
sVfork
p3119
I01
sVcommits_url
p3120
Vhttps://api.github.com/repos/cristibalan/thorax/commits{/sha}
p3121
sVreleases_url
p3122
Vhttps://api.github.com/repos/cristibalan/thorax/releases{/id}
p3123
sVissue_events_url
p3124
Vhttps://api.github.com/repos/cristibalan/thorax/issues/events{/number}
p3125
sVarchive_url
p3126
Vhttps://api.github.com/repos/cristibalan/thorax/{archive_format}{/ref}
p3127
sVcomments_url
p3128
Vhttps://api.github.com/repos/cristibalan/thorax/comments{/number}
p3129
sVevents_url
p3130
Vhttps://api.github.com/repos/cristibalan/thorax/events
p3131
sVcontributors_url
p3132
Vhttps://api.github.com/repos/cristibalan/thorax/contributors
p3133
sVhtml_url
p3134
Vhttps://github.com/cristibalan/thorax
p3135
sVforks
p3136
I0
sVcompare_url
p3137
Vhttps://api.github.com/repos/cristibalan/thorax/compare/{base}...{head}
p3138
sVopen_issues
p3139
I0
sVgit_url
p3140
Vgit://github.com/cristibalan/thorax.git
p3141
sVsvn_url
p3142
Vhttps://github.com/cristibalan/thorax
p3143
sVmerges_url
p3144
Vhttps://api.github.com/repos/cristibalan/thorax/merges
p3145
sVhas_issues
p3146
I00
sVssh_url
p3147
Vgit@github.com:cristibalan/thorax.git
p3148
sVblobs_url
p3149
Vhttps://api.github.com/repos/cristibalan/thorax/git/blobs{/sha}
p3150
sVmaster_branch
p3151
Vmaster
p3152
sVgit_commits_url
p3153
Vhttps://api.github.com/repos/cristibalan/thorax/git/commits{/sha}
p3154
sVhooks_url
p3155
Vhttps://api.github.com/repos/cristibalan/thorax/hooks
p3156
sVhas_downloads
p3157
I01
sVwatchers
p3158
I1
sVname
p3159
Vthorax
p3160
sVlanguage
p3161
VJavaScript
p3162
sVurl
p3163
Vhttps://api.github.com/repos/cristibalan/thorax
p3164
sVcreated_at
p3165
V2012-03-29T15:53:13Z
p3166
sVpushed_at
p3167
V2012-03-29T15:53:54Z
p3168
sVforks_count
p3169
I0
sVdefault_branch
p3170
Vmaster
p3171
sVteams_url
p3172
Vhttps://api.github.com/repos/cristibalan/thorax/teams
p3173
sVtrees_url
p3174
Vhttps://api.github.com/repos/cristibalan/thorax/git/trees{/sha}
p3175
sVbranches_url
p3176
Vhttps://api.github.com/repos/cristibalan/thorax/branches{/branch}
p3177
sVsubscribers_url
p3178
Vhttps://api.github.com/repos/cristibalan/thorax/subscribers
p3179
sVstargazers_url
p3180
Vhttps://api.github.com/repos/cristibalan/thorax/stargazers
p3181
sa.