(dp0
Vissues_url
p1
Vhttps://api.github.com/repos/cristibalan/thorax/issues{/number}
p2
sVstargazers_count
p3
I1
sVforks_url
p4
Vhttps://api.github.com/repos/cristibalan/thorax/forks
p5
sVmirror_url
p6
NsVsubscription_url
p7
Vhttps://api.github.com/repos/cristibalan/thorax/subscription
p8
sVnotifications_url
p9
Vhttps://api.github.com/repos/cristibalan/thorax/notifications{?since,all,participating}
p10
sVcollaborators_url
p11
Vhttps://api.github.com/repos/cristibalan/thorax/collaborators{/collaborator}
p12
sVupdated_at
p13
V2013-10-28T00:41:34Z
p14
sVprivate
p15
I00
sVpulls_url
p16
Vhttps://api.github.com/repos/cristibalan/thorax/pulls{/number}
p17
sVissue_comment_url
p18
Vhttps://api.github.com/repos/cristibalan/thorax/issues/comments/{number}
p19
sVlabels_url
p20
Vhttps://api.github.com/repos/cristibalan/thorax/labels{/name}
p21
sVhas_wiki
p22
I01
sVfull_name
p23
Vcristibalan/thorax
p24
sVowner
p25
(dp26
Vfollowing_url
p27
Vhttps://api.github.com/users/cristibalan/following{/other_user}
p28
sVevents_url
p29
Vhttps://api.github.com/users/cristibalan/events{/privacy}
p30
sVorganizations_url
p31
Vhttps://api.github.com/users/cristibalan/orgs
p32
sVurl
p33
Vhttps://api.github.com/users/cristibalan
p34
sVgists_url
p35
Vhttps://api.github.com/users/cristibalan/gists{/gist_id}
p36
sVhtml_url
p37
Vhttps://github.com/cristibalan
p38
sVsubscriptions_url
p39
Vhttps://api.github.com/users/cristibalan/subscriptions
p40
sVavatar_url
p41
Vhttps://gravatar.com/avatar/0e8c5f8d88cfc1aeeb59acdcc8aad387?d=https%3A%2F%2Fidenticons.github.com%2Fa0a080f42e6f13b3a2df133f073095dd.png&r=x
p42
sVrepos_url
p43
Vhttps://api.github.com/users/cristibalan/repos
p44
sVreceived_events_url
p45
Vhttps://api.github.com/users/cristibalan/received_events
p46
sVgravatar_id
p47
V0e8c5f8d88cfc1aeeb59acdcc8aad387
p48
sVstarred_url
p49
Vhttps://api.github.com/users/cristibalan/starred{/owner}{/repo}
p50
sVsite_admin
p51
I00
sVlogin
p52
Vcristibalan
p53
sVtype
p54
VUser
p55
sVid
p56
I122
sVfollowers_url
p57
Vhttps://api.github.com/users/cristibalan/followers
p58
ssVstatuses_url
p59
Vhttps://api.github.com/repos/cristibalan/thorax/statuses/{sha}
p60
sVid
p61
I3867639
sVkeys_url
p62
Vhttps://api.github.com/repos/cristibalan/thorax/keys{/key_id}
p63
sVdescription
p64
VStrengthening your Backbone
p65
sVsubscribers_count
p66
I1
sVtags_url
p67
Vhttps://api.github.com/repos/cristibalan/thorax/tags
p68
sVnetwork_count
p69
I107
sVdownloads_url
p70
Vhttps://api.github.com/repos/cristibalan/thorax/downloads
p71
sVassignees_url
p72
Vhttps://api.github.com/repos/cristibalan/thorax/assignees{/user}
p73
sVcontents_url
p74
Vhttps://api.github.com/repos/cristibalan/thorax/contents/{+path}
p75
sVgit_refs_url
p76
Vhttps://api.github.com/repos/cristibalan/thorax/git/refs{/sha}
p77
sVopen_issues_count
p78
I0
sVsource
p79
(dp80
Vissues_url
p81
Vhttps://api.github.com/repos/walmartlabs/thorax/issues{/number}
p82
sVstargazers_count
p83
I1150
sVforks_url
p84
Vhttps://api.github.com/repos/walmartlabs/thorax/forks
p85
sVmirror_url
p86
NsVsubscription_url
p87
Vhttps://api.github.com/repos/walmartlabs/thorax/subscription
p88
sVnotifications_url
p89
Vhttps://api.github.com/repos/walmartlabs/thorax/notifications{?since,all,participating}
p90
sVcollaborators_url
p91
Vhttps://api.github.com/repos/walmartlabs/thorax/collaborators{/collaborator}
p92
sVupdated_at
p93
V2014-02-13T23:19:56Z
p94
sVprivate
p95
I00
sVpulls_url
p96
Vhttps://api.github.com/repos/walmartlabs/thorax/pulls{/number}
p97
sVissue_comment_url
p98
Vhttps://api.github.com/repos/walmartlabs/thorax/issues/comments/{number}
p99
sVlabels_url
p100
Vhttps://api.github.com/repos/walmartlabs/thorax/labels{/name}
p101
sVhas_wiki
p102
I01
sVfull_name
p103
Vwalmartlabs/thorax
p104
sVowner
p105
(dp106
Vfollowing_url
p107
Vhttps://api.github.com/users/walmartlabs/following{/other_user}
p108
sVevents_url
p109
Vhttps://api.github.com/users/walmartlabs/events{/privacy}
p110
sVorganizations_url
p111
Vhttps://api.github.com/users/walmartlabs/orgs
p112
sVurl
p113
Vhttps://api.github.com/users/walmartlabs
p114
sVgists_url
p115
Vhttps://api.github.com/users/walmartlabs/gists{/gist_id}
p116
sVhtml_url
p117
Vhttps://github.com/walmartlabs
p118
sVsubscriptions_url
p119
Vhttps://api.github.com/users/walmartlabs/subscriptions
p120
sVavatar_url
p121
Vhttps://gravatar.com/avatar/fc99ca7b0cb55469b4ca83a1d7790958?d=https%3A%2F%2Fidenticons.github.com%2Fbd71a88d3b1b1cdf4012ac887c84eaef.png&r=x
p122
sVrepos_url
p123
Vhttps://api.github.com/users/walmartlabs/repos
p124
sVreceived_events_url
p125
Vhttps://api.github.com/users/walmartlabs/received_events
p126
sVgravatar_id
p127
Vfc99ca7b0cb55469b4ca83a1d7790958
p128
sVstarred_url
p129
Vhttps://api.github.com/users/walmartlabs/starred{/owner}{/repo}
p130
sVsite_admin
p131
I00
sVlogin
p132
Vwalmartlabs
p133
sVtype
p134
VOrganization
p135
sVid
p136
I768298
sVfollowers_url
p137
Vhttps://api.github.com/users/walmartlabs/followers
p138
ssVstatuses_url
p139
Vhttps://api.github.com/repos/walmartlabs/thorax/statuses/{sha}
p140
sVid
p141
I2522940
sVkeys_url
p142
Vhttps://api.github.com/repos/walmartlabs/thorax/keys{/key_id}
p143
sVdescription
p144
VStrengthening your Backbone
p145
sVtags_url
p146
Vhttps://api.github.com/repos/walmartlabs/thorax/tags
p147
sVdownloads_url
p148
Vhttps://api.github.com/repos/walmartlabs/thorax/downloads
p149
sVassignees_url
p150
Vhttps://api.github.com/repos/walmartlabs/thorax/assignees{/user}
p151
sVcontents_url
p152
Vhttps://api.github.com/repos/walmartlabs/thorax/contents/{+path}
p153
sVgit_refs_url
p154
Vhttps://api.github.com/repos/walmartlabs/thorax/git/refs{/sha}
p155
sVopen_issues_count
p156
I43
sVclone_url
p157
Vhttps://github.com/walmartlabs/thorax.git
p158
sVwatchers_count
p159
I1150
sVgit_tags_url
p160
Vhttps://api.github.com/repos/walmartlabs/thorax/git/tags{/sha}
p161
sVmilestones_url
p162
Vhttps://api.github.com/repos/walmartlabs/thorax/milestones{/number}
p163
sVlanguages_url
p164
Vhttps://api.github.com/repos/walmartlabs/thorax/languages
p165
sVsize
p166
I7436
sVhomepage
p167
Vhttp://thoraxjs.org/
p168
sVfork
p169
I00
sVcommits_url
p170
Vhttps://api.github.com/repos/walmartlabs/thorax/commits{/sha}
p171
sVreleases_url
p172
Vhttps://api.github.com/repos/walmartlabs/thorax/releases{/id}
p173
sVissue_events_url
p174
Vhttps://api.github.com/repos/walmartlabs/thorax/issues/events{/number}
p175
sVarchive_url
p176
Vhttps://api.github.com/repos/walmartlabs/thorax/{archive_format}{/ref}
p177
sVcomments_url
p178
Vhttps://api.github.com/repos/walmartlabs/thorax/comments{/number}
p179
sVevents_url
p180
Vhttps://api.github.com/repos/walmartlabs/thorax/events
p181
sVcontributors_url
p182
Vhttps://api.github.com/repos/walmartlabs/thorax/contributors
p183
sVhtml_url
p184
Vhttps://github.com/walmartlabs/thorax
p185
sVforks
p186
I107
sVcompare_url
p187
Vhttps://api.github.com/repos/walmartlabs/thorax/compare/{base}...{head}
p188
sVopen_issues
p189
I43
sVgit_url
p190
Vgit://github.com/walmartlabs/thorax.git
p191
sVsvn_url
p192
Vhttps://github.com/walmartlabs/thorax
p193
sVmerges_url
p194
Vhttps://api.github.com/repos/walmartlabs/thorax/merges
p195
sVhas_issues
p196
I01
sVssh_url
p197
Vgit@github.com:walmartlabs/thorax.git
p198
sVblobs_url
p199
Vhttps://api.github.com/repos/walmartlabs/thorax/git/blobs{/sha}
p200
sVmaster_branch
p201
Vmaster
p202
sVgit_commits_url
p203
Vhttps://api.github.com/repos/walmartlabs/thorax/git/commits{/sha}
p204
sVhooks_url
p205
Vhttps://api.github.com/repos/walmartlabs/thorax/hooks
p206
sVhas_downloads
p207
I01
sVwatchers
p208
I1150
sVname
p209
Vthorax
p210
sVlanguage
p211
VJavaScript
p212
sVurl
p213
Vhttps://api.github.com/repos/walmartlabs/thorax
p214
sVcreated_at
p215
V2011-10-05T23:21:17Z
p216
sVpushed_at
p217
V2014-02-13T23:19:55Z
p218
sVforks_count
p219
I107
sVdefault_branch
p220
Vmaster
p221
sVteams_url
p222
Vhttps://api.github.com/repos/walmartlabs/thorax/teams
p223
sVtrees_url
p224
Vhttps://api.github.com/repos/walmartlabs/thorax/git/trees{/sha}
p225
sVbranches_url
p226
Vhttps://api.github.com/repos/walmartlabs/thorax/branches{/branch}
p227
sVsubscribers_url
p228
Vhttps://api.github.com/repos/walmartlabs/thorax/subscribers
p229
sVstargazers_url
p230
Vhttps://api.github.com/repos/walmartlabs/thorax/stargazers
p231
ssVclone_url
p232
Vhttps://github.com/cristibalan/thorax.git
p233
sVwatchers_count
p234
I1
sVgit_tags_url
p235
Vhttps://api.github.com/repos/cristibalan/thorax/git/tags{/sha}
p236
sVmilestones_url
p237
Vhttps://api.github.com/repos/cristibalan/thorax/milestones{/number}
p238
sVlanguages_url
p239
Vhttps://api.github.com/repos/cristibalan/thorax/languages
p240
sVsize
p241
I855
sVhomepage
p242
Vhttp://walmartlabs.github.com/thorax
p243
sVfork
p244
I01
sVcommits_url
p245
Vhttps://api.github.com/repos/cristibalan/thorax/commits{/sha}
p246
sVreleases_url
p247
Vhttps://api.github.com/repos/cristibalan/thorax/releases{/id}
p248
sVissue_events_url
p249
Vhttps://api.github.com/repos/cristibalan/thorax/issues/events{/number}
p250
sVparent
p251
(dp252
Vissues_url
p253
Vhttps://api.github.com/repos/walmartlabs/thorax/issues{/number}
p254
sVstargazers_count
p255
I1150
sVforks_url
p256
Vhttps://api.github.com/repos/walmartlabs/thorax/forks
p257
sVmirror_url
p258
NsVsubscription_url
p259
Vhttps://api.github.com/repos/walmartlabs/thorax/subscription
p260
sVnotifications_url
p261
Vhttps://api.github.com/repos/walmartlabs/thorax/notifications{?since,all,participating}
p262
sVcollaborators_url
p263
Vhttps://api.github.com/repos/walmartlabs/thorax/collaborators{/collaborator}
p264
sVupdated_at
p265
V2014-02-13T23:19:56Z
p266
sVprivate
p267
I00
sVpulls_url
p268
Vhttps://api.github.com/repos/walmartlabs/thorax/pulls{/number}
p269
sVissue_comment_url
p270
Vhttps://api.github.com/repos/walmartlabs/thorax/issues/comments/{number}
p271
sVlabels_url
p272
Vhttps://api.github.com/repos/walmartlabs/thorax/labels{/name}
p273
sVhas_wiki
p274
I01
sVfull_name
p275
Vwalmartlabs/thorax
p276
sVowner
p277
(dp278
Vfollowing_url
p279
Vhttps://api.github.com/users/walmartlabs/following{/other_user}
p280
sVevents_url
p281
Vhttps://api.github.com/users/walmartlabs/events{/privacy}
p282
sVorganizations_url
p283
Vhttps://api.github.com/users/walmartlabs/orgs
p284
sVurl
p285
Vhttps://api.github.com/users/walmartlabs
p286
sVgists_url
p287
Vhttps://api.github.com/users/walmartlabs/gists{/gist_id}
p288
sVhtml_url
p289
Vhttps://github.com/walmartlabs
p290
sVsubscriptions_url
p291
Vhttps://api.github.com/users/walmartlabs/subscriptions
p292
sVavatar_url
p293
Vhttps://gravatar.com/avatar/fc99ca7b0cb55469b4ca83a1d7790958?d=https%3A%2F%2Fidenticons.github.com%2Fbd71a88d3b1b1cdf4012ac887c84eaef.png&r=x
p294
sVrepos_url
p295
Vhttps://api.github.com/users/walmartlabs/repos
p296
sVreceived_events_url
p297
Vhttps://api.github.com/users/walmartlabs/received_events
p298
sVgravatar_id
p299
Vfc99ca7b0cb55469b4ca83a1d7790958
p300
sVstarred_url
p301
Vhttps://api.github.com/users/walmartlabs/starred{/owner}{/repo}
p302
sVsite_admin
p303
I00
sVlogin
p304
Vwalmartlabs
p305
sVtype
p306
VOrganization
p307
sVid
p308
I768298
sVfollowers_url
p309
Vhttps://api.github.com/users/walmartlabs/followers
p310
ssVstatuses_url
p311
Vhttps://api.github.com/repos/walmartlabs/thorax/statuses/{sha}
p312
sVid
p313
I2522940
sVkeys_url
p314
Vhttps://api.github.com/repos/walmartlabs/thorax/keys{/key_id}
p315
sVdescription
p316
VStrengthening your Backbone
p317
sVtags_url
p318
Vhttps://api.github.com/repos/walmartlabs/thorax/tags
p319
sVdownloads_url
p320
Vhttps://api.github.com/repos/walmartlabs/thorax/downloads
p321
sVassignees_url
p322
Vhttps://api.github.com/repos/walmartlabs/thorax/assignees{/user}
p323
sVcontents_url
p324
Vhttps://api.github.com/repos/walmartlabs/thorax/contents/{+path}
p325
sVgit_refs_url
p326
Vhttps://api.github.com/repos/walmartlabs/thorax/git/refs{/sha}
p327
sVopen_issues_count
p328
I43
sVclone_url
p329
Vhttps://github.com/walmartlabs/thorax.git
p330
sVwatchers_count
p331
I1150
sVgit_tags_url
p332
Vhttps://api.github.com/repos/walmartlabs/thorax/git/tags{/sha}
p333
sVmilestones_url
p334
Vhttps://api.github.com/repos/walmartlabs/thorax/milestones{/number}
p335
sVlanguages_url
p336
Vhttps://api.github.com/repos/walmartlabs/thorax/languages
p337
sVsize
p338
I7436
sVhomepage
p339
Vhttp://thoraxjs.org/
p340
sVfork
p341
I00
sVcommits_url
p342
Vhttps://api.github.com/repos/walmartlabs/thorax/commits{/sha}
p343
sVreleases_url
p344
Vhttps://api.github.com/repos/walmartlabs/thorax/releases{/id}
p345
sVissue_events_url
p346
Vhttps://api.github.com/repos/walmartlabs/thorax/issues/events{/number}
p347
sVarchive_url
p348
Vhttps://api.github.com/repos/walmartlabs/thorax/{archive_format}{/ref}
p349
sVcomments_url
p350
Vhttps://api.github.com/repos/walmartlabs/thorax/comments{/number}
p351
sVevents_url
p352
Vhttps://api.github.com/repos/walmartlabs/thorax/events
p353
sVcontributors_url
p354
Vhttps://api.github.com/repos/walmartlabs/thorax/contributors
p355
sVhtml_url
p356
Vhttps://github.com/walmartlabs/thorax
p357
sVforks
p358
I107
sVcompare_url
p359
Vhttps://api.github.com/repos/walmartlabs/thorax/compare/{base}...{head}
p360
sVopen_issues
p361
I43
sVgit_url
p362
Vgit://github.com/walmartlabs/thorax.git
p363
sVsvn_url
p364
Vhttps://github.com/walmartlabs/thorax
p365
sVmerges_url
p366
Vhttps://api.github.com/repos/walmartlabs/thorax/merges
p367
sVhas_issues
p368
I01
sVssh_url
p369
Vgit@github.com:walmartlabs/thorax.git
p370
sVblobs_url
p371
Vhttps://api.github.com/repos/walmartlabs/thorax/git/blobs{/sha}
p372
sVmaster_branch
p373
Vmaster
p374
sVgit_commits_url
p375
Vhttps://api.github.com/repos/walmartlabs/thorax/git/commits{/sha}
p376
sVhooks_url
p377
Vhttps://api.github.com/repos/walmartlabs/thorax/hooks
p378
sVhas_downloads
p379
I01
sVwatchers
p380
I1150
sVname
p381
Vthorax
p382
sVlanguage
p383
VJavaScript
p384
sVurl
p385
Vhttps://api.github.com/repos/walmartlabs/thorax
p386
sVcreated_at
p387
V2011-10-05T23:21:17Z
p388
sVpushed_at
p389
V2014-02-13T23:19:55Z
p390
sVforks_count
p391
I107
sVdefault_branch
p392
Vmaster
p393
sVteams_url
p394
Vhttps://api.github.com/repos/walmartlabs/thorax/teams
p395
sVtrees_url
p396
Vhttps://api.github.com/repos/walmartlabs/thorax/git/trees{/sha}
p397
sVbranches_url
p398
Vhttps://api.github.com/repos/walmartlabs/thorax/branches{/branch}
p399
sVsubscribers_url
p400
Vhttps://api.github.com/repos/walmartlabs/thorax/subscribers
p401
sVstargazers_url
p402
Vhttps://api.github.com/repos/walmartlabs/thorax/stargazers
p403
ssVarchive_url
p404
Vhttps://api.github.com/repos/cristibalan/thorax/{archive_format}{/ref}
p405
sVcomments_url
p406
Vhttps://api.github.com/repos/cristibalan/thorax/comments{/number}
p407
sVevents_url
p408
Vhttps://api.github.com/repos/cristibalan/thorax/events
p409
sVcontributors_url
p410
Vhttps://api.github.com/repos/cristibalan/thorax/contributors
p411
sVhtml_url
p412
Vhttps://github.com/cristibalan/thorax
p413
sVforks
p414
I0
sVcompare_url
p415
Vhttps://api.github.com/repos/cristibalan/thorax/compare/{base}...{head}
p416
sVopen_issues
p417
I0
sVgit_url
p418
Vgit://github.com/cristibalan/thorax.git
p419
sVsvn_url
p420
Vhttps://github.com/cristibalan/thorax
p421
sVmerges_url
p422
Vhttps://api.github.com/repos/cristibalan/thorax/merges
p423
sVhas_issues
p424
I00
sVssh_url
p425
Vgit@github.com:cristibalan/thorax.git
p426
sVblobs_url
p427
Vhttps://api.github.com/repos/cristibalan/thorax/git/blobs{/sha}
p428
sVmaster_branch
p429
Vmaster
p430
sVgit_commits_url
p431
Vhttps://api.github.com/repos/cristibalan/thorax/git/commits{/sha}
p432
sVhooks_url
p433
Vhttps://api.github.com/repos/cristibalan/thorax/hooks
p434
sVhas_downloads
p435
I01
sVwatchers
p436
I1
sVname
p437
Vthorax
p438
sVlanguage
p439
VJavaScript
p440
sVurl
p441
Vhttps://api.github.com/repos/cristibalan/thorax
p442
sVcreated_at
p443
V2012-03-29T15:53:13Z
p444
sVpushed_at
p445
V2012-03-29T15:53:54Z
p446
sVforks_count
p447
I0
sVdefault_branch
p448
Vmaster
p449
sVteams_url
p450
Vhttps://api.github.com/repos/cristibalan/thorax/teams
p451
sVtrees_url
p452
Vhttps://api.github.com/repos/cristibalan/thorax/git/trees{/sha}
p453
sVbranches_url
p454
Vhttps://api.github.com/repos/cristibalan/thorax/branches{/branch}
p455
sVsubscribers_url
p456
Vhttps://api.github.com/repos/cristibalan/thorax/subscribers
p457
sVstargazers_url
p458
Vhttps://api.github.com/repos/cristibalan/thorax/stargazers
p459
s.