(dp0
Vissues_url
p1
Vhttps://api.github.com/repos/cristibalan/fuzzyfinder_textmate/issues{/number}
p2
sVstargazers_count
p3
I1
sVforks_url
p4
Vhttps://api.github.com/repos/cristibalan/fuzzyfinder_textmate/forks
p5
sVmirror_url
p6
NsVsubscription_url
p7
Vhttps://api.github.com/repos/cristibalan/fuzzyfinder_textmate/subscription
p8
sVnotifications_url
p9
Vhttps://api.github.com/repos/cristibalan/fuzzyfinder_textmate/notifications{?since,all,participating}
p10
sVcollaborators_url
p11
Vhttps://api.github.com/repos/cristibalan/fuzzyfinder_textmate/collaborators{/collaborator}
p12
sVupdated_at
p13
V2013-10-28T00:41:34Z
p14
sVprivate
p15
I00
sVpulls_url
p16
Vhttps://api.github.com/repos/cristibalan/fuzzyfinder_textmate/pulls{/number}
p17
sVissue_comment_url
p18
Vhttps://api.github.com/repos/cristibalan/fuzzyfinder_textmate/issues/comments/{number}
p19
sVlabels_url
p20
Vhttps://api.github.com/repos/cristibalan/fuzzyfinder_textmate/labels{/name}
p21
sVhas_wiki
p22
I01
sVfull_name
p23
Vcristibalan/fuzzyfinder_textmate
p24
sVowner
p25
(dp26
Vfollowing_url
p27
Vhttps://api.github.com/users/cristibalan/following{/other_user}
p28
sVevents_url
p29
Vhttps://api.github.com/users/cristibalan/events{/privacy}
p30
sVorganizations_url
p31
Vhttps://api.github.com/users/cristibalan/orgs
p32
sVurl
p33
Vhttps://api.github.com/users/cristibalan
p34
sVgists_url
p35
Vhttps://api.github.com/users/cristibalan/gists{/gist_id}
p36
sVhtml_url
p37
Vhttps://github.com/cristibalan
p38
sVsubscriptions_url
p39
Vhttps://api.github.com/users/cristibalan/subscriptions
p40
sVavatar_url
p41
Vhttps://gravatar.com/avatar/0e8c5f8d88cfc1aeeb59acdcc8aad387?d=https%3A%2F%2Fidenticons.github.com%2Fa0a080f42e6f13b3a2df133f073095dd.png&r=x
p42
sVrepos_url
p43
Vhttps://api.github.com/users/cristibalan/repos
p44
sVreceived_events_url
p45
Vhttps://api.github.com/users/cristibalan/received_events
p46
sVgravatar_id
p47
V0e8c5f8d88cfc1aeeb59acdcc8aad387
p48
sVstarred_url
p49
Vhttps://api.github.com/users/cristibalan/starred{/owner}{/repo}
p50
sVsite_admin
p51
I00
sVlogin
p52
Vcristibalan
p53
sVtype
p54
VUser
p55
sVid
p56
I122
sVfollowers_url
p57
Vhttps://api.github.com/users/cristibalan/followers
p58
ssVstatuses_url
p59
Vhttps://api.github.com/repos/cristibalan/fuzzyfinder_textmate/statuses/{sha}
p60
sVid
p61
I124627
sVkeys_url
p62
Vhttps://api.github.com/repos/cristibalan/fuzzyfinder_textmate/keys{/key_id}
p63
sVdescription
p64
VUNMAINTAINED! A vim script that extends the fuzzyfinder plugin to support TextMate style file searches (e.g. cmd-T)
p65
sVsubscribers_count
p66
I1
sVtags_url
p67
Vhttps://api.github.com/repos/cristibalan/fuzzyfinder_textmate/tags
p68
sVnetwork_count
p69
I34
sVdownloads_url
p70
Vhttps://api.github.com/repos/cristibalan/fuzzyfinder_textmate/downloads
p71
sVassignees_url
p72
Vhttps://api.github.com/repos/cristibalan/fuzzyfinder_textmate/assignees{/user}
p73
sVcontents_url
p74
Vhttps://api.github.com/repos/cristibalan/fuzzyfinder_textmate/contents/{+path}
p75
sVgit_refs_url
p76
Vhttps://api.github.com/repos/cristibalan/fuzzyfinder_textmate/git/refs{/sha}
p77
sVopen_issues_count
p78
I0
sVsource
p79
(dp80
Vissues_url
p81
Vhttps://api.github.com/repos/jamis/fuzzyfinder_textmate/issues{/number}
p82
sVstargazers_count
p83
I222
sVforks_url
p84
Vhttps://api.github.com/repos/jamis/fuzzyfinder_textmate/forks
p85
sVmirror_url
p86
NsVsubscription_url
p87
Vhttps://api.github.com/repos/jamis/fuzzyfinder_textmate/subscription
p88
sVnotifications_url
p89
Vhttps://api.github.com/repos/jamis/fuzzyfinder_textmate/notifications{?since,all,participating}
p90
sVcollaborators_url
p91
Vhttps://api.github.com/repos/jamis/fuzzyfinder_textmate/collaborators{/collaborator}
p92
sVupdated_at
p93
V2013-12-23T06:23:44Z
p94
sVprivate
p95
I00
sVpulls_url
p96
Vhttps://api.github.com/repos/jamis/fuzzyfinder_textmate/pulls{/number}
p97
sVissue_comment_url
p98
Vhttps://api.github.com/repos/jamis/fuzzyfinder_textmate/issues/comments/{number}
p99
sVlabels_url
p100
Vhttps://api.github.com/repos/jamis/fuzzyfinder_textmate/labels{/name}
p101
sVhas_wiki
p102
I00
sVfull_name
p103
Vjamis/fuzzyfinder_textmate
p104
sVowner
p105
(dp106
Vfollowing_url
p107
Vhttps://api.github.com/users/jamis/following{/other_user}
p108
sVevents_url
p109
Vhttps://api.github.com/users/jamis/events{/privacy}
p110
sVorganizations_url
p111
Vhttps://api.github.com/users/jamis/orgs
p112
sVurl
p113
Vhttps://api.github.com/users/jamis
p114
sVgists_url
p115
Vhttps://api.github.com/users/jamis/gists{/gist_id}
p116
sVhtml_url
p117
Vhttps://github.com/jamis
p118
sVsubscriptions_url
p119
Vhttps://api.github.com/users/jamis/subscriptions
p120
sVavatar_url
p121
Vhttps://gravatar.com/avatar/992fe8c19bbbc27f2b562a9f96efc03d?d=https%3A%2F%2Fidenticons.github.com%2F97d0145823aeb8ed80617be62e08bdcc.png&r=x
p122
sVrepos_url
p123
Vhttps://api.github.com/users/jamis/repos
p124
sVreceived_events_url
p125
Vhttps://api.github.com/users/jamis/received_events
p126
sVgravatar_id
p127
V992fe8c19bbbc27f2b562a9f96efc03d
p128
sVstarred_url
p129
Vhttps://api.github.com/users/jamis/starred{/owner}{/repo}
p130
sVsite_admin
p131
I00
sVlogin
p132
Vjamis
p133
sVtype
p134
VUser
p135
sVid
p136
I1627
sVfollowers_url
p137
Vhttps://api.github.com/users/jamis/followers
p138
ssVstatuses_url
p139
Vhttps://api.github.com/repos/jamis/fuzzyfinder_textmate/statuses/{sha}
p140
sVid
p141
I61337
sVkeys_url
p142
Vhttps://api.github.com/repos/jamis/fuzzyfinder_textmate/keys{/key_id}
p143
sVdescription
p144
VA vim script that extends the fuzzyfinder plugin to support TextMate style file searches (e.g. cmd-T) (Unmaintained now, see http://weblog.jamisbuck.org/2009/1/28/the-future-of-fuzzyfinder-textmate)
p145
sVtags_url
p146
Vhttps://api.github.com/repos/jamis/fuzzyfinder_textmate/tags
p147
sVdownloads_url
p148
Vhttps://api.github.com/repos/jamis/fuzzyfinder_textmate/downloads
p149
sVassignees_url
p150
Vhttps://api.github.com/repos/jamis/fuzzyfinder_textmate/assignees{/user}
p151
sVcontents_url
p152
Vhttps://api.github.com/repos/jamis/fuzzyfinder_textmate/contents/{+path}
p153
sVgit_refs_url
p154
Vhttps://api.github.com/repos/jamis/fuzzyfinder_textmate/git/refs{/sha}
p155
sVopen_issues_count
p156
I0
sVclone_url
p157
Vhttps://github.com/jamis/fuzzyfinder_textmate.git
p158
sVwatchers_count
p159
I222
sVgit_tags_url
p160
Vhttps://api.github.com/repos/jamis/fuzzyfinder_textmate/git/tags{/sha}
p161
sVmilestones_url
p162
Vhttps://api.github.com/repos/jamis/fuzzyfinder_textmate/milestones{/number}
p163
sVlanguages_url
p164
Vhttps://api.github.com/repos/jamis/fuzzyfinder_textmate/languages
p165
sVsize
p166
I84
sVhomepage
p167
Vhttp://weblog.jamisbuck.org/2009/1/28/the-future-of-fuzzyfinder-textmate
p168
sVfork
p169
I00
sVcommits_url
p170
Vhttps://api.github.com/repos/jamis/fuzzyfinder_textmate/commits{/sha}
p171
sVreleases_url
p172
Vhttps://api.github.com/repos/jamis/fuzzyfinder_textmate/releases{/id}
p173
sVissue_events_url
p174
Vhttps://api.github.com/repos/jamis/fuzzyfinder_textmate/issues/events{/number}
p175
sVarchive_url
p176
Vhttps://api.github.com/repos/jamis/fuzzyfinder_textmate/{archive_format}{/ref}
p177
sVcomments_url
p178
Vhttps://api.github.com/repos/jamis/fuzzyfinder_textmate/comments{/number}
p179
sVevents_url
p180
Vhttps://api.github.com/repos/jamis/fuzzyfinder_textmate/events
p181
sVcontributors_url
p182
Vhttps://api.github.com/repos/jamis/fuzzyfinder_textmate/contributors
p183
sVhtml_url
p184
Vhttps://github.com/jamis/fuzzyfinder_textmate
p185
sVforks
p186
I34
sVcompare_url
p187
Vhttps://api.github.com/repos/jamis/fuzzyfinder_textmate/compare/{base}...{head}
p188
sVopen_issues
p189
I0
sVgit_url
p190
Vgit://github.com/jamis/fuzzyfinder_textmate.git
p191
sVsvn_url
p192
Vhttps://github.com/jamis/fuzzyfinder_textmate
p193
sVmerges_url
p194
Vhttps://api.github.com/repos/jamis/fuzzyfinder_textmate/merges
p195
sVhas_issues
p196
I00
sVssh_url
p197
Vgit@github.com:jamis/fuzzyfinder_textmate.git
p198
sVblobs_url
p199
Vhttps://api.github.com/repos/jamis/fuzzyfinder_textmate/git/blobs{/sha}
p200
sVmaster_branch
p201
Vmaster
p202
sVgit_commits_url
p203
Vhttps://api.github.com/repos/jamis/fuzzyfinder_textmate/git/commits{/sha}
p204
sVhooks_url
p205
Vhttps://api.github.com/repos/jamis/fuzzyfinder_textmate/hooks
p206
sVhas_downloads
p207
I00
sVwatchers
p208
I222
sVname
p209
Vfuzzyfinder_textmate
p210
sVlanguage
p211
VVimL
p212
sVurl
p213
Vhttps://api.github.com/repos/jamis/fuzzyfinder_textmate
p214
sVcreated_at
p215
V2008-10-09T21:50:02Z
p216
sVpushed_at
p217
V2008-12-31T15:40:48Z
p218
sVforks_count
p219
I34
sVdefault_branch
p220
Vmaster
p221
sVteams_url
p222
Vhttps://api.github.com/repos/jamis/fuzzyfinder_textmate/teams
p223
sVtrees_url
p224
Vhttps://api.github.com/repos/jamis/fuzzyfinder_textmate/git/trees{/sha}
p225
sVbranches_url
p226
Vhttps://api.github.com/repos/jamis/fuzzyfinder_textmate/branches{/branch}
p227
sVsubscribers_url
p228
Vhttps://api.github.com/repos/jamis/fuzzyfinder_textmate/subscribers
p229
sVstargazers_url
p230
Vhttps://api.github.com/repos/jamis/fuzzyfinder_textmate/stargazers
p231
ssVclone_url
p232
Vhttps://github.com/cristibalan/fuzzyfinder_textmate.git
p233
sVwatchers_count
p234
I1
sVgit_tags_url
p235
Vhttps://api.github.com/repos/cristibalan/fuzzyfinder_textmate/git/tags{/sha}
p236
sVmilestones_url
p237
Vhttps://api.github.com/repos/cristibalan/fuzzyfinder_textmate/milestones{/number}
p238
sVlanguages_url
p239
Vhttps://api.github.com/repos/cristibalan/fuzzyfinder_textmate/languages
p240
sVsize
p241
I90
sVhomepage
p242
V
p243
sVfork
p244
I01
sVcommits_url
p245
Vhttps://api.github.com/repos/cristibalan/fuzzyfinder_textmate/commits{/sha}
p246
sVreleases_url
p247
Vhttps://api.github.com/repos/cristibalan/fuzzyfinder_textmate/releases{/id}
p248
sVissue_events_url
p249
Vhttps://api.github.com/repos/cristibalan/fuzzyfinder_textmate/issues/events{/number}
p250
sVparent
p251
(dp252
Vissues_url
p253
Vhttps://api.github.com/repos/sethbc/fuzzyfinder_textmate/issues{/number}
p254
sVstargazers_count
p255
I54
sVforks_url
p256
Vhttps://api.github.com/repos/sethbc/fuzzyfinder_textmate/forks
p257
sVmirror_url
p258
NsVsubscription_url
p259
Vhttps://api.github.com/repos/sethbc/fuzzyfinder_textmate/subscription
p260
sVnotifications_url
p261
Vhttps://api.github.com/repos/sethbc/fuzzyfinder_textmate/notifications{?since,all,participating}
p262
sVcollaborators_url
p263
Vhttps://api.github.com/repos/sethbc/fuzzyfinder_textmate/collaborators{/collaborator}
p264
sVupdated_at
p265
V2013-12-14T23:34:40Z
p266
sVprivate
p267
I00
sVpulls_url
p268
Vhttps://api.github.com/repos/sethbc/fuzzyfinder_textmate/pulls{/number}
p269
sVissue_comment_url
p270
Vhttps://api.github.com/repos/sethbc/fuzzyfinder_textmate/issues/comments/{number}
p271
sVlabels_url
p272
Vhttps://api.github.com/repos/sethbc/fuzzyfinder_textmate/labels{/name}
p273
sVhas_wiki
p274
I01
sVfull_name
p275
Vsethbc/fuzzyfinder_textmate
p276
sVowner
p277
(dp278
Vfollowing_url
p279
Vhttps://api.github.com/users/sethbc/following{/other_user}
p280
sVevents_url
p281
Vhttps://api.github.com/users/sethbc/events{/privacy}
p282
sVorganizations_url
p283
Vhttps://api.github.com/users/sethbc/orgs
p284
sVurl
p285
Vhttps://api.github.com/users/sethbc
p286
sVgists_url
p287
Vhttps://api.github.com/users/sethbc/gists{/gist_id}
p288
sVhtml_url
p289
Vhttps://github.com/sethbc
p290
sVsubscriptions_url
p291
Vhttps://api.github.com/users/sethbc/subscriptions
p292
sVavatar_url
p293
Vhttps://gravatar.com/avatar/3cf12d603379cd2eca7635f55e6538db?d=https%3A%2F%2Fidenticons.github.com%2F7e05d6f828574fbc975a896b25bb011e.png&r=x
p294
sVrepos_url
p295
Vhttps://api.github.com/users/sethbc/repos
p296
sVreceived_events_url
p297
Vhttps://api.github.com/users/sethbc/received_events
p298
sVgravatar_id
p299
V3cf12d603379cd2eca7635f55e6538db
p300
sVstarred_url
p301
Vhttps://api.github.com/users/sethbc/starred{/owner}{/repo}
p302
sVsite_admin
p303
I00
sVlogin
p304
Vsethbc
p305
sVtype
p306
VUser
p307
sVid
p308
I2457
sVfollowers_url
p309
Vhttps://api.github.com/users/sethbc/followers
p310
ssVstatuses_url
p311
Vhttps://api.github.com/repos/sethbc/fuzzyfinder_textmate/statuses/{sha}
p312
sVid
p313
I98902
sVkeys_url
p314
Vhttps://api.github.com/repos/sethbc/fuzzyfinder_textmate/keys{/key_id}
p315
sVdescription
p316
VA vim script that extends the fuzzyfinder plugin to support TextMate style file searches (e.g. cmd-T)
p317
sVtags_url
p318
Vhttps://api.github.com/repos/sethbc/fuzzyfinder_textmate/tags
p319
sVdownloads_url
p320
Vhttps://api.github.com/repos/sethbc/fuzzyfinder_textmate/downloads
p321
sVassignees_url
p322
Vhttps://api.github.com/repos/sethbc/fuzzyfinder_textmate/assignees{/user}
p323
sVcontents_url
p324
Vhttps://api.github.com/repos/sethbc/fuzzyfinder_textmate/contents/{+path}
p325
sVgit_refs_url
p326
Vhttps://api.github.com/repos/sethbc/fuzzyfinder_textmate/git/refs{/sha}
p327
sVopen_issues_count
p328
I0
sVclone_url
p329
Vhttps://github.com/sethbc/fuzzyfinder_textmate.git
p330
sVwatchers_count
p331
I54
sVgit_tags_url
p332
Vhttps://api.github.com/repos/sethbc/fuzzyfinder_textmate/git/tags{/sha}
p333
sVmilestones_url
p334
Vhttps://api.github.com/repos/sethbc/fuzzyfinder_textmate/milestones{/number}
p335
sVlanguages_url
p336
Vhttps://api.github.com/repos/sethbc/fuzzyfinder_textmate/languages
p337
sVsize
p338
I146
sVhomepage
p339
g243
sVfork
p340
I01
sVcommits_url
p341
Vhttps://api.github.com/repos/sethbc/fuzzyfinder_textmate/commits{/sha}
p342
sVreleases_url
p343
Vhttps://api.github.com/repos/sethbc/fuzzyfinder_textmate/releases{/id}
p344
sVissue_events_url
p345
Vhttps://api.github.com/repos/sethbc/fuzzyfinder_textmate/issues/events{/number}
p346
sVarchive_url
p347
Vhttps://api.github.com/repos/sethbc/fuzzyfinder_textmate/{archive_format}{/ref}
p348
sVcomments_url
p349
Vhttps://api.github.com/repos/sethbc/fuzzyfinder_textmate/comments{/number}
p350
sVevents_url
p351
Vhttps://api.github.com/repos/sethbc/fuzzyfinder_textmate/events
p352
sVcontributors_url
p353
Vhttps://api.github.com/repos/sethbc/fuzzyfinder_textmate/contributors
p354
sVhtml_url
p355
Vhttps://github.com/sethbc/fuzzyfinder_textmate
p356
sVforks
p357
I9
sVcompare_url
p358
Vhttps://api.github.com/repos/sethbc/fuzzyfinder_textmate/compare/{base}...{head}
p359
sVopen_issues
p360
I0
sVgit_url
p361
Vgit://github.com/sethbc/fuzzyfinder_textmate.git
p362
sVsvn_url
p363
Vhttps://github.com/sethbc/fuzzyfinder_textmate
p364
sVmerges_url
p365
Vhttps://api.github.com/repos/sethbc/fuzzyfinder_textmate/merges
p366
sVhas_issues
p367
I01
sVssh_url
p368
Vgit@github.com:sethbc/fuzzyfinder_textmate.git
p369
sVblobs_url
p370
Vhttps://api.github.com/repos/sethbc/fuzzyfinder_textmate/git/blobs{/sha}
p371
sVmaster_branch
p372
Vmaster
p373
sVgit_commits_url
p374
Vhttps://api.github.com/repos/sethbc/fuzzyfinder_textmate/git/commits{/sha}
p375
sVhooks_url
p376
Vhttps://api.github.com/repos/sethbc/fuzzyfinder_textmate/hooks
p377
sVhas_downloads
p378
I01
sVwatchers
p379
I54
sVname
p380
Vfuzzyfinder_textmate
p381
sVlanguage
p382
VVimL
p383
sVurl
p384
Vhttps://api.github.com/repos/sethbc/fuzzyfinder_textmate
p385
sVcreated_at
p386
V2008-12-31T08:34:43Z
p387
sVpushed_at
p388
V2011-11-15T14:17:55Z
p389
sVforks_count
p390
I9
sVdefault_branch
p391
Vmaster
p392
sVteams_url
p393
Vhttps://api.github.com/repos/sethbc/fuzzyfinder_textmate/teams
p394
sVtrees_url
p395
Vhttps://api.github.com/repos/sethbc/fuzzyfinder_textmate/git/trees{/sha}
p396
sVbranches_url
p397
Vhttps://api.github.com/repos/sethbc/fuzzyfinder_textmate/branches{/branch}
p398
sVsubscribers_url
p399
Vhttps://api.github.com/repos/sethbc/fuzzyfinder_textmate/subscribers
p400
sVstargazers_url
p401
Vhttps://api.github.com/repos/sethbc/fuzzyfinder_textmate/stargazers
p402
ssVarchive_url
p403
Vhttps://api.github.com/repos/cristibalan/fuzzyfinder_textmate/{archive_format}{/ref}
p404
sVcomments_url
p405
Vhttps://api.github.com/repos/cristibalan/fuzzyfinder_textmate/comments{/number}
p406
sVevents_url
p407
Vhttps://api.github.com/repos/cristibalan/fuzzyfinder_textmate/events
p408
sVcontributors_url
p409
Vhttps://api.github.com/repos/cristibalan/fuzzyfinder_textmate/contributors
p410
sVhtml_url
p411
Vhttps://github.com/cristibalan/fuzzyfinder_textmate
p412
sVforks
p413
I0
sVcompare_url
p414
Vhttps://api.github.com/repos/cristibalan/fuzzyfinder_textmate/compare/{base}...{head}
p415
sVopen_issues
p416
I0
sVgit_url
p417
Vgit://github.com/cristibalan/fuzzyfinder_textmate.git
p418
sVsvn_url
p419
Vhttps://github.com/cristibalan/fuzzyfinder_textmate
p420
sVmerges_url
p421
Vhttps://api.github.com/repos/cristibalan/fuzzyfinder_textmate/merges
p422
sVhas_issues
p423
I01
sVssh_url
p424
Vgit@github.com:cristibalan/fuzzyfinder_textmate.git
p425
sVblobs_url
p426
Vhttps://api.github.com/repos/cristibalan/fuzzyfinder_textmate/git/blobs{/sha}
p427
sVmaster_branch
p428
Vmaster
p429
sVgit_commits_url
p430
Vhttps://api.github.com/repos/cristibalan/fuzzyfinder_textmate/git/commits{/sha}
p431
sVhooks_url
p432
Vhttps://api.github.com/repos/cristibalan/fuzzyfinder_textmate/hooks
p433
sVhas_downloads
p434
I01
sVwatchers
p435
I1
sVname
p436
Vfuzzyfinder_textmate
p437
sVlanguage
p438
VVimL
p439
sVurl
p440
Vhttps://api.github.com/repos/cristibalan/fuzzyfinder_textmate
p441
sVcreated_at
p442
V2009-02-08T23:55:28Z
p443
sVpushed_at
p444
V2009-02-09T00:23:08Z
p445
sVforks_count
p446
I0
sVdefault_branch
p447
Vmaster
p448
sVteams_url
p449
Vhttps://api.github.com/repos/cristibalan/fuzzyfinder_textmate/teams
p450
sVtrees_url
p451
Vhttps://api.github.com/repos/cristibalan/fuzzyfinder_textmate/git/trees{/sha}
p452
sVbranches_url
p453
Vhttps://api.github.com/repos/cristibalan/fuzzyfinder_textmate/branches{/branch}
p454
sVsubscribers_url
p455
Vhttps://api.github.com/repos/cristibalan/fuzzyfinder_textmate/subscribers
p456
sVstargazers_url
p457
Vhttps://api.github.com/repos/cristibalan/fuzzyfinder_textmate/stargazers
p458
s.