(dp0
Vissues_url
p1
Vhttps://api.github.com/repos/cristibalan/braid/issues{/number}
p2
sVstargazers_count
p3
I350
sVforks_url
p4
Vhttps://api.github.com/repos/cristibalan/braid/forks
p5
sVmirror_url
p6
NsVsubscription_url
p7
Vhttps://api.github.com/repos/cristibalan/braid/subscription
p8
sVnotifications_url
p9
Vhttps://api.github.com/repos/cristibalan/braid/notifications{?since,all,participating}
p10
sVcollaborators_url
p11
Vhttps://api.github.com/repos/cristibalan/braid/collaborators{/collaborator}
p12
sVupdated_at
p13
V2014-01-04T13:16:44Z
p14
sVprivate
p15
I00
sVpulls_url
p16
Vhttps://api.github.com/repos/cristibalan/braid/pulls{/number}
p17
sVissue_comment_url
p18
Vhttps://api.github.com/repos/cristibalan/braid/issues/comments/{number}
p19
sVlabels_url
p20
Vhttps://api.github.com/repos/cristibalan/braid/labels{/name}
p21
sVhas_wiki
p22
I01
sVfull_name
p23
Vcristibalan/braid
p24
sVowner
p25
(dp26
Vfollowing_url
p27
Vhttps://api.github.com/users/cristibalan/following{/other_user}
p28
sVevents_url
p29
Vhttps://api.github.com/users/cristibalan/events{/privacy}
p30
sVorganizations_url
p31
Vhttps://api.github.com/users/cristibalan/orgs
p32
sVurl
p33
Vhttps://api.github.com/users/cristibalan
p34
sVgists_url
p35
Vhttps://api.github.com/users/cristibalan/gists{/gist_id}
p36
sVhtml_url
p37
Vhttps://github.com/cristibalan
p38
sVsubscriptions_url
p39
Vhttps://api.github.com/users/cristibalan/subscriptions
p40
sVavatar_url
p41
Vhttps://gravatar.com/avatar/0e8c5f8d88cfc1aeeb59acdcc8aad387?d=https%3A%2F%2Fidenticons.github.com%2Fa0a080f42e6f13b3a2df133f073095dd.png&r=x
p42
sVrepos_url
p43
Vhttps://api.github.com/users/cristibalan/repos
p44
sVreceived_events_url
p45
Vhttps://api.github.com/users/cristibalan/received_events
p46
sVgravatar_id
p47
V0e8c5f8d88cfc1aeeb59acdcc8aad387
p48
sVstarred_url
p49
Vhttps://api.github.com/users/cristibalan/starred{/owner}{/repo}
p50
sVsite_admin
p51
I00
sVlogin
p52
Vcristibalan
p53
sVtype
p54
VUser
p55
sVid
p56
I122
sVfollowers_url
p57
Vhttps://api.github.com/users/cristibalan/followers
p58
ssVstatuses_url
p59
Vhttps://api.github.com/repos/cristibalan/braid/statuses/{sha}
p60
sVid
p61
I249
sVkeys_url
p62
Vhttps://api.github.com/repos/cristibalan/braid/keys{/key_id}
p63
sVdescription
p64
VSimple tool to help track git and svn vendor branches in a git repository
p65
sVsubscribers_count
p66
I9
sVtags_url
p67
Vhttps://api.github.com/repos/cristibalan/braid/tags
p68
sVnetwork_count
p69
I27
sVdownloads_url
p70
Vhttps://api.github.com/repos/cristibalan/braid/downloads
p71
sVassignees_url
p72
Vhttps://api.github.com/repos/cristibalan/braid/assignees{/user}
p73
sVcontents_url
p74
Vhttps://api.github.com/repos/cristibalan/braid/contents/{+path}
p75
sVgit_refs_url
p76
Vhttps://api.github.com/repos/cristibalan/braid/git/refs{/sha}
p77
sVopen_issues_count
p78
I9
sVclone_url
p79
Vhttps://github.com/cristibalan/braid.git
p80
sVwatchers_count
p81
I350
sVgit_tags_url
p82
Vhttps://api.github.com/repos/cristibalan/braid/git/tags{/sha}
p83
sVmilestones_url
p84
Vhttps://api.github.com/repos/cristibalan/braid/milestones{/number}
p85
sVlanguages_url
p86
Vhttps://api.github.com/repos/cristibalan/braid/languages
p87
sVsize
p88
I1779
sVhomepage
p89
Vhttp://github.com/evilchelu/braid/wikis/home
p90
sVfork
p91
I00
sVcommits_url
p92
Vhttps://api.github.com/repos/cristibalan/braid/commits{/sha}
p93
sVreleases_url
p94
Vhttps://api.github.com/repos/cristibalan/braid/releases{/id}
p95
sVissue_events_url
p96
Vhttps://api.github.com/repos/cristibalan/braid/issues/events{/number}
p97
sVarchive_url
p98
Vhttps://api.github.com/repos/cristibalan/braid/{archive_format}{/ref}
p99
sVcomments_url
p100
Vhttps://api.github.com/repos/cristibalan/braid/comments{/number}
p101
sVevents_url
p102
Vhttps://api.github.com/repos/cristibalan/braid/events
p103
sVcontributors_url
p104
Vhttps://api.github.com/repos/cristibalan/braid/contributors
p105
sVhtml_url
p106
Vhttps://github.com/cristibalan/braid
p107
sVforks
p108
I27
sVcompare_url
p109
Vhttps://api.github.com/repos/cristibalan/braid/compare/{base}...{head}
p110
sVopen_issues
p111
I9
sVgit_url
p112
Vgit://github.com/cristibalan/braid.git
p113
sVsvn_url
p114
Vhttps://github.com/cristibalan/braid
p115
sVmerges_url
p116
Vhttps://api.github.com/repos/cristibalan/braid/merges
p117
sVhas_issues
p118
I01
sVssh_url
p119
Vgit@github.com:cristibalan/braid.git
p120
sVblobs_url
p121
Vhttps://api.github.com/repos/cristibalan/braid/git/blobs{/sha}
p122
sVmaster_branch
p123
Vmaster
p124
sVgit_commits_url
p125
Vhttps://api.github.com/repos/cristibalan/braid/git/commits{/sha}
p126
sVhooks_url
p127
Vhttps://api.github.com/repos/cristibalan/braid/hooks
p128
sVhas_downloads
p129
I01
sVwatchers
p130
I350
sVname
p131
Vbraid
p132
sVlanguage
p133
VRuby
p134
sVurl
p135
Vhttps://api.github.com/repos/cristibalan/braid
p136
sVcreated_at
p137
V2008-02-03T21:14:46Z
p138
sVpushed_at
p139
V2013-08-07T14:41:28Z
p140
sVforks_count
p141
I27
sVdefault_branch
p142
Vmaster
p143
sVteams_url
p144
Vhttps://api.github.com/repos/cristibalan/braid/teams
p145
sVtrees_url
p146
Vhttps://api.github.com/repos/cristibalan/braid/git/trees{/sha}
p147
sVbranches_url
p148
Vhttps://api.github.com/repos/cristibalan/braid/branches{/branch}
p149
sVsubscribers_url
p150
Vhttps://api.github.com/repos/cristibalan/braid/subscribers
p151
sVstargazers_url
p152
Vhttps://api.github.com/repos/cristibalan/braid/stargazers
p153
s.