(dp0
Vissues_url
p1
Vhttps://api.github.com/repos/cristibalan/asset_auto_include/issues{/number}
p2
sVstargazers_count
p3
I9
sVforks_url
p4
Vhttps://api.github.com/repos/cristibalan/asset_auto_include/forks
p5
sVmirror_url
p6
NsVsubscription_url
p7
Vhttps://api.github.com/repos/cristibalan/asset_auto_include/subscription
p8
sVnotifications_url
p9
Vhttps://api.github.com/repos/cristibalan/asset_auto_include/notifications{?since,all,participating}
p10
sVcollaborators_url
p11
Vhttps://api.github.com/repos/cristibalan/asset_auto_include/collaborators{/collaborator}
p12
sVupdated_at
p13
V2013-11-03T09:15:30Z
p14
sVprivate
p15
I00
sVpulls_url
p16
Vhttps://api.github.com/repos/cristibalan/asset_auto_include/pulls{/number}
p17
sVissue_comment_url
p18
Vhttps://api.github.com/repos/cristibalan/asset_auto_include/issues/comments/{number}
p19
sVlabels_url
p20
Vhttps://api.github.com/repos/cristibalan/asset_auto_include/labels{/name}
p21
sVhas_wiki
p22
I01
sVfull_name
p23
Vcristibalan/asset_auto_include
p24
sVowner
p25
(dp26
Vfollowing_url
p27
Vhttps://api.github.com/users/cristibalan/following{/other_user}
p28
sVevents_url
p29
Vhttps://api.github.com/users/cristibalan/events{/privacy}
p30
sVorganizations_url
p31
Vhttps://api.github.com/users/cristibalan/orgs
p32
sVurl
p33
Vhttps://api.github.com/users/cristibalan
p34
sVgists_url
p35
Vhttps://api.github.com/users/cristibalan/gists{/gist_id}
p36
sVhtml_url
p37
Vhttps://github.com/cristibalan
p38
sVsubscriptions_url
p39
Vhttps://api.github.com/users/cristibalan/subscriptions
p40
sVavatar_url
p41
Vhttps://gravatar.com/avatar/0e8c5f8d88cfc1aeeb59acdcc8aad387?d=https%3A%2F%2Fidenticons.github.com%2Fa0a080f42e6f13b3a2df133f073095dd.png&r=x
p42
sVrepos_url
p43
Vhttps://api.github.com/users/cristibalan/repos
p44
sVreceived_events_url
p45
Vhttps://api.github.com/users/cristibalan/received_events
p46
sVgravatar_id
p47
V0e8c5f8d88cfc1aeeb59acdcc8aad387
p48
sVstarred_url
p49
Vhttps://api.github.com/users/cristibalan/starred{/owner}{/repo}
p50
sVsite_admin
p51
I00
sVlogin
p52
Vcristibalan
p53
sVtype
p54
VUser
p55
sVid
p56
I122
sVfollowers_url
p57
Vhttps://api.github.com/users/cristibalan/followers
p58
ssVstatuses_url
p59
Vhttps://api.github.com/repos/cristibalan/asset_auto_include/statuses/{sha}
p60
sVid
p61
I20196
sVkeys_url
p62
Vhttps://api.github.com/repos/cristibalan/asset_auto_include/keys{/key_id}
p63
sVdescription
p64
VBased on the javascript_auto_include_plugin but allows to include all sorts of things, not just js
p65
sVsubscribers_count
p66
I3
sVtags_url
p67
Vhttps://api.github.com/repos/cristibalan/asset_auto_include/tags
p68
sVnetwork_count
p69
I1
sVdownloads_url
p70
Vhttps://api.github.com/repos/cristibalan/asset_auto_include/downloads
p71
sVassignees_url
p72
Vhttps://api.github.com/repos/cristibalan/asset_auto_include/assignees{/user}
p73
sVcontents_url
p74
Vhttps://api.github.com/repos/cristibalan/asset_auto_include/contents/{+path}
p75
sVgit_refs_url
p76
Vhttps://api.github.com/repos/cristibalan/asset_auto_include/git/refs{/sha}
p77
sVopen_issues_count
p78
I0
sVclone_url
p79
Vhttps://github.com/cristibalan/asset_auto_include.git
p80
sVwatchers_count
p81
I9
sVgit_tags_url
p82
Vhttps://api.github.com/repos/cristibalan/asset_auto_include/git/tags{/sha}
p83
sVmilestones_url
p84
Vhttps://api.github.com/repos/cristibalan/asset_auto_include/milestones{/number}
p85
sVlanguages_url
p86
Vhttps://api.github.com/repos/cristibalan/asset_auto_include/languages
p87
sVsize
p88
I98
sVhomepage
p89
Vhttp://evil.che.lu/
p90
sVfork
p91
I00
sVcommits_url
p92
Vhttps://api.github.com/repos/cristibalan/asset_auto_include/commits{/sha}
p93
sVreleases_url
p94
Vhttps://api.github.com/repos/cristibalan/asset_auto_include/releases{/id}
p95
sVissue_events_url
p96
Vhttps://api.github.com/repos/cristibalan/asset_auto_include/issues/events{/number}
p97
sVarchive_url
p98
Vhttps://api.github.com/repos/cristibalan/asset_auto_include/{archive_format}{/ref}
p99
sVcomments_url
p100
Vhttps://api.github.com/repos/cristibalan/asset_auto_include/comments{/number}
p101
sVevents_url
p102
Vhttps://api.github.com/repos/cristibalan/asset_auto_include/events
p103
sVcontributors_url
p104
Vhttps://api.github.com/repos/cristibalan/asset_auto_include/contributors
p105
sVhtml_url
p106
Vhttps://github.com/cristibalan/asset_auto_include
p107
sVforks
p108
I1
sVcompare_url
p109
Vhttps://api.github.com/repos/cristibalan/asset_auto_include/compare/{base}...{head}
p110
sVopen_issues
p111
I0
sVgit_url
p112
Vgit://github.com/cristibalan/asset_auto_include.git
p113
sVsvn_url
p114
Vhttps://github.com/cristibalan/asset_auto_include
p115
sVmerges_url
p116
Vhttps://api.github.com/repos/cristibalan/asset_auto_include/merges
p117
sVhas_issues
p118
I01
sVssh_url
p119
Vgit@github.com:cristibalan/asset_auto_include.git
p120
sVblobs_url
p121
Vhttps://api.github.com/repos/cristibalan/asset_auto_include/git/blobs{/sha}
p122
sVmaster_branch
p123
Vmaster
p124
sVgit_commits_url
p125
Vhttps://api.github.com/repos/cristibalan/asset_auto_include/git/commits{/sha}
p126
sVhooks_url
p127
Vhttps://api.github.com/repos/cristibalan/asset_auto_include/hooks
p128
sVhas_downloads
p129
I01
sVwatchers
p130
I9
sVname
p131
Vasset_auto_include
p132
sVlanguage
p133
VRuby
p134
sVurl
p135
Vhttps://api.github.com/repos/cristibalan/asset_auto_include
p136
sVcreated_at
p137
V2008-05-28T12:49:20Z
p138
sVpushed_at
p139
V2009-11-29T11:47:08Z
p140
sVforks_count
p141
I1
sVdefault_branch
p142
Vmaster
p143
sVteams_url
p144
Vhttps://api.github.com/repos/cristibalan/asset_auto_include/teams
p145
sVtrees_url
p146
Vhttps://api.github.com/repos/cristibalan/asset_auto_include/git/trees{/sha}
p147
sVbranches_url
p148
Vhttps://api.github.com/repos/cristibalan/asset_auto_include/branches{/branch}
p149
sVsubscribers_url
p150
Vhttps://api.github.com/repos/cristibalan/asset_auto_include/subscribers
p151
sVstargazers_url
p152
Vhttps://api.github.com/repos/cristibalan/asset_auto_include/stargazers
p153
s.