(dp0
Vissues_url
p1
Vhttps://api.github.com/repos/KirinDave/Equivalent-Exchange-3/issues{/number}
p2
sVstargazers_count
p3
I0
sVforks_url
p4
Vhttps://api.github.com/repos/KirinDave/Equivalent-Exchange-3/forks
p5
sVmirror_url
p6
NsVsubscription_url
p7
Vhttps://api.github.com/repos/KirinDave/Equivalent-Exchange-3/subscription
p8
sVnotifications_url
p9
Vhttps://api.github.com/repos/KirinDave/Equivalent-Exchange-3/notifications{?since,all,participating}
p10
sVcollaborators_url
p11
Vhttps://api.github.com/repos/KirinDave/Equivalent-Exchange-3/collaborators{/collaborator}
p12
sVupdated_at
p13
V2014-02-19T01:59:51Z
p14
sVprivate
p15
I00
sVpulls_url
p16
Vhttps://api.github.com/repos/KirinDave/Equivalent-Exchange-3/pulls{/number}
p17
sVissue_comment_url
p18
Vhttps://api.github.com/repos/KirinDave/Equivalent-Exchange-3/issues/comments/{number}
p19
sVlabels_url
p20
Vhttps://api.github.com/repos/KirinDave/Equivalent-Exchange-3/labels{/name}
p21
sVhas_wiki
p22
I01
sVfull_name
p23
VKirinDave/Equivalent-Exchange-3
p24
sVowner
p25
(dp26
Vfollowing_url
p27
Vhttps://api.github.com/users/KirinDave/following{/other_user}
p28
sVevents_url
p29
Vhttps://api.github.com/users/KirinDave/events{/privacy}
p30
sVorganizations_url
p31
Vhttps://api.github.com/users/KirinDave/orgs
p32
sVurl
p33
Vhttps://api.github.com/users/KirinDave
p34
sVgists_url
p35
Vhttps://api.github.com/users/KirinDave/gists{/gist_id}
p36
sVhtml_url
p37
Vhttps://github.com/KirinDave
p38
sVsubscriptions_url
p39
Vhttps://api.github.com/users/KirinDave/subscriptions
p40
sVavatar_url
p41
Vhttps://avatars.githubusercontent.com/u/36?
p42
sVrepos_url
p43
Vhttps://api.github.com/users/KirinDave/repos
p44
sVreceived_events_url
p45
Vhttps://api.github.com/users/KirinDave/received_events
p46
sVgravatar_id
p47
Vd4fabd6c08ac228a3ff846d9d0d1580e
p48
sVstarred_url
p49
Vhttps://api.github.com/users/KirinDave/starred{/owner}{/repo}
p50
sVsite_admin
p51
I00
sVlogin
p52
VKirinDave
p53
sVtype
p54
VUser
p55
sVid
p56
I36
sVfollowers_url
p57
Vhttps://api.github.com/users/KirinDave/followers
p58
ssVstatuses_url
p59
Vhttps://api.github.com/repos/KirinDave/Equivalent-Exchange-3/statuses/{sha}
p60
sVid
p61
I16970834
sVkeys_url
p62
Vhttps://api.github.com/repos/KirinDave/Equivalent-Exchange-3/keys{/key_id}
p63
sVdescription
p64
V
p65
sVsubscribers_count
p66
I1
sVtags_url
p67
Vhttps://api.github.com/repos/KirinDave/Equivalent-Exchange-3/tags
p68
sVnetwork_count
p69
I422
sVdownloads_url
p70
Vhttps://api.github.com/repos/KirinDave/Equivalent-Exchange-3/downloads
p71
sVassignees_url
p72
Vhttps://api.github.com/repos/KirinDave/Equivalent-Exchange-3/assignees{/user}
p73
sVcontents_url
p74
Vhttps://api.github.com/repos/KirinDave/Equivalent-Exchange-3/contents/{+path}
p75
sVgit_refs_url
p76
Vhttps://api.github.com/repos/KirinDave/Equivalent-Exchange-3/git/refs{/sha}
p77
sVopen_issues_count
p78
I0
sVsource
p79
(dp80
Vissues_url
p81
Vhttps://api.github.com/repos/pahimar/Equivalent-Exchange-3/issues{/number}
p82
sVstargazers_count
p83
I578
sVforks_url
p84
Vhttps://api.github.com/repos/pahimar/Equivalent-Exchange-3/forks
p85
sVmirror_url
p86
NsVsubscription_url
p87
Vhttps://api.github.com/repos/pahimar/Equivalent-Exchange-3/subscription
p88
sVnotifications_url
p89
Vhttps://api.github.com/repos/pahimar/Equivalent-Exchange-3/notifications{?since,all,participating}
p90
sVcollaborators_url
p91
Vhttps://api.github.com/repos/pahimar/Equivalent-Exchange-3/collaborators{/collaborator}
p92
sVupdated_at
p93
V2014-03-28T19:54:18Z
p94
sVprivate
p95
I00
sVpulls_url
p96
Vhttps://api.github.com/repos/pahimar/Equivalent-Exchange-3/pulls{/number}
p97
sVissue_comment_url
p98
Vhttps://api.github.com/repos/pahimar/Equivalent-Exchange-3/issues/comments/{number}
p99
sVlabels_url
p100
Vhttps://api.github.com/repos/pahimar/Equivalent-Exchange-3/labels{/name}
p101
sVhas_wiki
p102
I01
sVfull_name
p103
Vpahimar/Equivalent-Exchange-3
p104
sVowner
p105
(dp106
Vfollowing_url
p107
Vhttps://api.github.com/users/pahimar/following{/other_user}
p108
sVevents_url
p109
Vhttps://api.github.com/users/pahimar/events{/privacy}
p110
sVorganizations_url
p111
Vhttps://api.github.com/users/pahimar/orgs
p112
sVurl
p113
Vhttps://api.github.com/users/pahimar
p114
sVgists_url
p115
Vhttps://api.github.com/users/pahimar/gists{/gist_id}
p116
sVhtml_url
p117
Vhttps://github.com/pahimar
p118
sVsubscriptions_url
p119
Vhttps://api.github.com/users/pahimar/subscriptions
p120
sVavatar_url
p121
Vhttps://avatars.githubusercontent.com/u/1450090?
p122
sVrepos_url
p123
Vhttps://api.github.com/users/pahimar/repos
p124
sVreceived_events_url
p125
Vhttps://api.github.com/users/pahimar/received_events
p126
sVgravatar_id
p127
V31dad7d0a23acf47a7394fddc52c7730
p128
sVstarred_url
p129
Vhttps://api.github.com/users/pahimar/starred{/owner}{/repo}
p130
sVsite_admin
p131
I00
sVlogin
p132
Vpahimar
p133
sVtype
p134
VUser
p135
sVid
p136
I1450090
sVfollowers_url
p137
Vhttps://api.github.com/users/pahimar/followers
p138
ssVstatuses_url
p139
Vhttps://api.github.com/repos/pahimar/Equivalent-Exchange-3/statuses/{sha}
p140
sVid
p141
I4128173
sVkeys_url
p142
Vhttps://api.github.com/repos/pahimar/Equivalent-Exchange-3/keys{/key_id}
p143
sVdescription
p144
g65
sVtags_url
p145
Vhttps://api.github.com/repos/pahimar/Equivalent-Exchange-3/tags
p146
sVdownloads_url
p147
Vhttps://api.github.com/repos/pahimar/Equivalent-Exchange-3/downloads
p148
sVassignees_url
p149
Vhttps://api.github.com/repos/pahimar/Equivalent-Exchange-3/assignees{/user}
p150
sVcontents_url
p151
Vhttps://api.github.com/repos/pahimar/Equivalent-Exchange-3/contents/{+path}
p152
sVgit_refs_url
p153
Vhttps://api.github.com/repos/pahimar/Equivalent-Exchange-3/git/refs{/sha}
p154
sVopen_issues_count
p155
I20
sVclone_url
p156
Vhttps://github.com/pahimar/Equivalent-Exchange-3.git
p157
sVwatchers_count
p158
I578
sVgit_tags_url
p159
Vhttps://api.github.com/repos/pahimar/Equivalent-Exchange-3/git/tags{/sha}
p160
sVmilestones_url
p161
Vhttps://api.github.com/repos/pahimar/Equivalent-Exchange-3/milestones{/number}
p162
sVlanguages_url
p163
Vhttps://api.github.com/repos/pahimar/Equivalent-Exchange-3/languages
p164
sVsize
p165
I11825
sVhomepage
p166
NsVfork
p167
I00
sVcommits_url
p168
Vhttps://api.github.com/repos/pahimar/Equivalent-Exchange-3/commits{/sha}
p169
sVreleases_url
p170
Vhttps://api.github.com/repos/pahimar/Equivalent-Exchange-3/releases{/id}
p171
sVissue_events_url
p172
Vhttps://api.github.com/repos/pahimar/Equivalent-Exchange-3/issues/events{/number}
p173
sVarchive_url
p174
Vhttps://api.github.com/repos/pahimar/Equivalent-Exchange-3/{archive_format}{/ref}
p175
sVcomments_url
p176
Vhttps://api.github.com/repos/pahimar/Equivalent-Exchange-3/comments{/number}
p177
sVevents_url
p178
Vhttps://api.github.com/repos/pahimar/Equivalent-Exchange-3/events
p179
sVcontributors_url
p180
Vhttps://api.github.com/repos/pahimar/Equivalent-Exchange-3/contributors
p181
sVhtml_url
p182
Vhttps://github.com/pahimar/Equivalent-Exchange-3
p183
sVforks
p184
I422
sVcompare_url
p185
Vhttps://api.github.com/repos/pahimar/Equivalent-Exchange-3/compare/{base}...{head}
p186
sVopen_issues
p187
I20
sVgit_url
p188
Vgit://github.com/pahimar/Equivalent-Exchange-3.git
p189
sVsvn_url
p190
Vhttps://github.com/pahimar/Equivalent-Exchange-3
p191
sVmerges_url
p192
Vhttps://api.github.com/repos/pahimar/Equivalent-Exchange-3/merges
p193
sVhas_issues
p194
I01
sVssh_url
p195
Vgit@github.com:pahimar/Equivalent-Exchange-3.git
p196
sVblobs_url
p197
Vhttps://api.github.com/repos/pahimar/Equivalent-Exchange-3/git/blobs{/sha}
p198
sVmaster_branch
p199
Vmaster
p200
sVgit_commits_url
p201
Vhttps://api.github.com/repos/pahimar/Equivalent-Exchange-3/git/commits{/sha}
p202
sVhooks_url
p203
Vhttps://api.github.com/repos/pahimar/Equivalent-Exchange-3/hooks
p204
sVhas_downloads
p205
I01
sVwatchers
p206
I578
sVname
p207
VEquivalent-Exchange-3
p208
sVlanguage
p209
VJava
p210
sVurl
p211
Vhttps://api.github.com/repos/pahimar/Equivalent-Exchange-3
p212
sVcreated_at
p213
V2012-04-24T18:32:13Z
p214
sVpushed_at
p215
V2014-03-28T19:54:20Z
p216
sVforks_count
p217
I422
sVdefault_branch
p218
Vmaster
p219
sVteams_url
p220
Vhttps://api.github.com/repos/pahimar/Equivalent-Exchange-3/teams
p221
sVtrees_url
p222
Vhttps://api.github.com/repos/pahimar/Equivalent-Exchange-3/git/trees{/sha}
p223
sVbranches_url
p224
Vhttps://api.github.com/repos/pahimar/Equivalent-Exchange-3/branches{/branch}
p225
sVsubscribers_url
p226
Vhttps://api.github.com/repos/pahimar/Equivalent-Exchange-3/subscribers
p227
sVstargazers_url
p228
Vhttps://api.github.com/repos/pahimar/Equivalent-Exchange-3/stargazers
p229
ssVclone_url
p230
Vhttps://github.com/KirinDave/Equivalent-Exchange-3.git
p231
sVwatchers_count
p232
I0
sVgit_tags_url
p233
Vhttps://api.github.com/repos/KirinDave/Equivalent-Exchange-3/git/tags{/sha}
p234
sVmilestones_url
p235
Vhttps://api.github.com/repos/KirinDave/Equivalent-Exchange-3/milestones{/number}
p236
sVlanguages_url
p237
Vhttps://api.github.com/repos/KirinDave/Equivalent-Exchange-3/languages
p238
sVsize
p239
I11704
sVhomepage
p240
NsVfork
p241
I01
sVcommits_url
p242
Vhttps://api.github.com/repos/KirinDave/Equivalent-Exchange-3/commits{/sha}
p243
sVreleases_url
p244
Vhttps://api.github.com/repos/KirinDave/Equivalent-Exchange-3/releases{/id}
p245
sVissue_events_url
p246
Vhttps://api.github.com/repos/KirinDave/Equivalent-Exchange-3/issues/events{/number}
p247
sVparent
p248
(dp249
Vissues_url
p250
Vhttps://api.github.com/repos/pahimar/Equivalent-Exchange-3/issues{/number}
p251
sVstargazers_count
p252
I578
sVforks_url
p253
Vhttps://api.github.com/repos/pahimar/Equivalent-Exchange-3/forks
p254
sVmirror_url
p255
NsVsubscription_url
p256
Vhttps://api.github.com/repos/pahimar/Equivalent-Exchange-3/subscription
p257
sVnotifications_url
p258
Vhttps://api.github.com/repos/pahimar/Equivalent-Exchange-3/notifications{?since,all,participating}
p259
sVcollaborators_url
p260
Vhttps://api.github.com/repos/pahimar/Equivalent-Exchange-3/collaborators{/collaborator}
p261
sVupdated_at
p262
V2014-03-28T19:54:18Z
p263
sVprivate
p264
I00
sVpulls_url
p265
Vhttps://api.github.com/repos/pahimar/Equivalent-Exchange-3/pulls{/number}
p266
sVissue_comment_url
p267
Vhttps://api.github.com/repos/pahimar/Equivalent-Exchange-3/issues/comments/{number}
p268
sVlabels_url
p269
Vhttps://api.github.com/repos/pahimar/Equivalent-Exchange-3/labels{/name}
p270
sVhas_wiki
p271
I01
sVfull_name
p272
Vpahimar/Equivalent-Exchange-3
p273
sVowner
p274
(dp275
Vfollowing_url
p276
Vhttps://api.github.com/users/pahimar/following{/other_user}
p277
sVevents_url
p278
Vhttps://api.github.com/users/pahimar/events{/privacy}
p279
sVorganizations_url
p280
Vhttps://api.github.com/users/pahimar/orgs
p281
sVurl
p282
Vhttps://api.github.com/users/pahimar
p283
sVgists_url
p284
Vhttps://api.github.com/users/pahimar/gists{/gist_id}
p285
sVhtml_url
p286
Vhttps://github.com/pahimar
p287
sVsubscriptions_url
p288
Vhttps://api.github.com/users/pahimar/subscriptions
p289
sVavatar_url
p290
Vhttps://avatars.githubusercontent.com/u/1450090?
p291
sVrepos_url
p292
Vhttps://api.github.com/users/pahimar/repos
p293
sVreceived_events_url
p294
Vhttps://api.github.com/users/pahimar/received_events
p295
sVgravatar_id
p296
V31dad7d0a23acf47a7394fddc52c7730
p297
sVstarred_url
p298
Vhttps://api.github.com/users/pahimar/starred{/owner}{/repo}
p299
sVsite_admin
p300
I00
sVlogin
p301
Vpahimar
p302
sVtype
p303
VUser
p304
sVid
p305
I1450090
sVfollowers_url
p306
Vhttps://api.github.com/users/pahimar/followers
p307
ssVstatuses_url
p308
Vhttps://api.github.com/repos/pahimar/Equivalent-Exchange-3/statuses/{sha}
p309
sVid
p310
I4128173
sVkeys_url
p311
Vhttps://api.github.com/repos/pahimar/Equivalent-Exchange-3/keys{/key_id}
p312
sVdescription
p313
g65
sVtags_url
p314
Vhttps://api.github.com/repos/pahimar/Equivalent-Exchange-3/tags
p315
sVdownloads_url
p316
Vhttps://api.github.com/repos/pahimar/Equivalent-Exchange-3/downloads
p317
sVassignees_url
p318
Vhttps://api.github.com/repos/pahimar/Equivalent-Exchange-3/assignees{/user}
p319
sVcontents_url
p320
Vhttps://api.github.com/repos/pahimar/Equivalent-Exchange-3/contents/{+path}
p321
sVgit_refs_url
p322
Vhttps://api.github.com/repos/pahimar/Equivalent-Exchange-3/git/refs{/sha}
p323
sVopen_issues_count
p324
I20
sVclone_url
p325
Vhttps://github.com/pahimar/Equivalent-Exchange-3.git
p326
sVwatchers_count
p327
I578
sVgit_tags_url
p328
Vhttps://api.github.com/repos/pahimar/Equivalent-Exchange-3/git/tags{/sha}
p329
sVmilestones_url
p330
Vhttps://api.github.com/repos/pahimar/Equivalent-Exchange-3/milestones{/number}
p331
sVlanguages_url
p332
Vhttps://api.github.com/repos/pahimar/Equivalent-Exchange-3/languages
p333
sVsize
p334
I11825
sVhomepage
p335
NsVfork
p336
I00
sVcommits_url
p337
Vhttps://api.github.com/repos/pahimar/Equivalent-Exchange-3/commits{/sha}
p338
sVreleases_url
p339
Vhttps://api.github.com/repos/pahimar/Equivalent-Exchange-3/releases{/id}
p340
sVissue_events_url
p341
Vhttps://api.github.com/repos/pahimar/Equivalent-Exchange-3/issues/events{/number}
p342
sVarchive_url
p343
Vhttps://api.github.com/repos/pahimar/Equivalent-Exchange-3/{archive_format}{/ref}
p344
sVcomments_url
p345
Vhttps://api.github.com/repos/pahimar/Equivalent-Exchange-3/comments{/number}
p346
sVevents_url
p347
Vhttps://api.github.com/repos/pahimar/Equivalent-Exchange-3/events
p348
sVcontributors_url
p349
Vhttps://api.github.com/repos/pahimar/Equivalent-Exchange-3/contributors
p350
sVhtml_url
p351
Vhttps://github.com/pahimar/Equivalent-Exchange-3
p352
sVforks
p353
I422
sVcompare_url
p354
Vhttps://api.github.com/repos/pahimar/Equivalent-Exchange-3/compare/{base}...{head}
p355
sVopen_issues
p356
I20
sVgit_url
p357
Vgit://github.com/pahimar/Equivalent-Exchange-3.git
p358
sVsvn_url
p359
Vhttps://github.com/pahimar/Equivalent-Exchange-3
p360
sVmerges_url
p361
Vhttps://api.github.com/repos/pahimar/Equivalent-Exchange-3/merges
p362
sVhas_issues
p363
I01
sVssh_url
p364
Vgit@github.com:pahimar/Equivalent-Exchange-3.git
p365
sVblobs_url
p366
Vhttps://api.github.com/repos/pahimar/Equivalent-Exchange-3/git/blobs{/sha}
p367
sVmaster_branch
p368
Vmaster
p369
sVgit_commits_url
p370
Vhttps://api.github.com/repos/pahimar/Equivalent-Exchange-3/git/commits{/sha}
p371
sVhooks_url
p372
Vhttps://api.github.com/repos/pahimar/Equivalent-Exchange-3/hooks
p373
sVhas_downloads
p374
I01
sVwatchers
p375
I578
sVname
p376
VEquivalent-Exchange-3
p377
sVlanguage
p378
VJava
p379
sVurl
p380
Vhttps://api.github.com/repos/pahimar/Equivalent-Exchange-3
p381
sVcreated_at
p382
V2012-04-24T18:32:13Z
p383
sVpushed_at
p384
V2014-03-28T19:54:20Z
p385
sVforks_count
p386
I422
sVdefault_branch
p387
Vmaster
p388
sVteams_url
p389
Vhttps://api.github.com/repos/pahimar/Equivalent-Exchange-3/teams
p390
sVtrees_url
p391
Vhttps://api.github.com/repos/pahimar/Equivalent-Exchange-3/git/trees{/sha}
p392
sVbranches_url
p393
Vhttps://api.github.com/repos/pahimar/Equivalent-Exchange-3/branches{/branch}
p394
sVsubscribers_url
p395
Vhttps://api.github.com/repos/pahimar/Equivalent-Exchange-3/subscribers
p396
sVstargazers_url
p397
Vhttps://api.github.com/repos/pahimar/Equivalent-Exchange-3/stargazers
p398
ssVarchive_url
p399
Vhttps://api.github.com/repos/KirinDave/Equivalent-Exchange-3/{archive_format}{/ref}
p400
sVcomments_url
p401
Vhttps://api.github.com/repos/KirinDave/Equivalent-Exchange-3/comments{/number}
p402
sVevents_url
p403
Vhttps://api.github.com/repos/KirinDave/Equivalent-Exchange-3/events
p404
sVcontributors_url
p405
Vhttps://api.github.com/repos/KirinDave/Equivalent-Exchange-3/contributors
p406
sVhtml_url
p407
Vhttps://github.com/KirinDave/Equivalent-Exchange-3
p408
sVforks
p409
I0
sVcompare_url
p410
Vhttps://api.github.com/repos/KirinDave/Equivalent-Exchange-3/compare/{base}...{head}
p411
sVopen_issues
p412
I0
sVgit_url
p413
Vgit://github.com/KirinDave/Equivalent-Exchange-3.git
p414
sVsvn_url
p415
Vhttps://github.com/KirinDave/Equivalent-Exchange-3
p416
sVmerges_url
p417
Vhttps://api.github.com/repos/KirinDave/Equivalent-Exchange-3/merges
p418
sVhas_issues
p419
I00
sVssh_url
p420
Vgit@github.com:KirinDave/Equivalent-Exchange-3.git
p421
sVblobs_url
p422
Vhttps://api.github.com/repos/KirinDave/Equivalent-Exchange-3/git/blobs{/sha}
p423
sVmaster_branch
p424
Vmaster
p425
sVgit_commits_url
p426
Vhttps://api.github.com/repos/KirinDave/Equivalent-Exchange-3/git/commits{/sha}
p427
sVhooks_url
p428
Vhttps://api.github.com/repos/KirinDave/Equivalent-Exchange-3/hooks
p429
sVhas_downloads
p430
I01
sVwatchers
p431
I0
sVname
p432
VEquivalent-Exchange-3
p433
sVlanguage
p434
VJava
p435
sVurl
p436
Vhttps://api.github.com/repos/KirinDave/Equivalent-Exchange-3
p437
sVcreated_at
p438
V2014-02-19T01:59:50Z
p439
sVpushed_at
p440
V2014-02-14T15:21:24Z
p441
sVforks_count
p442
I0
sVdefault_branch
p443
Vmaster
p444
sVteams_url
p445
Vhttps://api.github.com/repos/KirinDave/Equivalent-Exchange-3/teams
p446
sVtrees_url
p447
Vhttps://api.github.com/repos/KirinDave/Equivalent-Exchange-3/git/trees{/sha}
p448
sVbranches_url
p449
Vhttps://api.github.com/repos/KirinDave/Equivalent-Exchange-3/branches{/branch}
p450
sVsubscribers_url
p451
Vhttps://api.github.com/repos/KirinDave/Equivalent-Exchange-3/subscribers
p452
sVstargazers_url
p453
Vhttps://api.github.com/repos/KirinDave/Equivalent-Exchange-3/stargazers
p454
s.