(dp0
Vissues_url
p1
Vhttps://api.github.com/repos/KirinDave/clj-mixpanel/issues{/number}
p2
sVstargazers_count
p3
I0
sVforks_url
p4
Vhttps://api.github.com/repos/KirinDave/clj-mixpanel/forks
p5
sVmirror_url
p6
NsVsubscription_url
p7
Vhttps://api.github.com/repos/KirinDave/clj-mixpanel/subscription
p8
sVnotifications_url
p9
Vhttps://api.github.com/repos/KirinDave/clj-mixpanel/notifications{?since,all,participating}
p10
sVcollaborators_url
p11
Vhttps://api.github.com/repos/KirinDave/clj-mixpanel/collaborators{/collaborator}
p12
sVupdated_at
p13
V2014-01-13T23:42:31Z
p14
sVprivate
p15
I00
sVpulls_url
p16
Vhttps://api.github.com/repos/KirinDave/clj-mixpanel/pulls{/number}
p17
sVissue_comment_url
p18
Vhttps://api.github.com/repos/KirinDave/clj-mixpanel/issues/comments/{number}
p19
sVlabels_url
p20
Vhttps://api.github.com/repos/KirinDave/clj-mixpanel/labels{/name}
p21
sVhas_wiki
p22
I01
sVfull_name
p23
VKirinDave/clj-mixpanel
p24
sVowner
p25
(dp26
Vfollowing_url
p27
Vhttps://api.github.com/users/KirinDave/following{/other_user}
p28
sVevents_url
p29
Vhttps://api.github.com/users/KirinDave/events{/privacy}
p30
sVorganizations_url
p31
Vhttps://api.github.com/users/KirinDave/orgs
p32
sVurl
p33
Vhttps://api.github.com/users/KirinDave
p34
sVgists_url
p35
Vhttps://api.github.com/users/KirinDave/gists{/gist_id}
p36
sVhtml_url
p37
Vhttps://github.com/KirinDave
p38
sVsubscriptions_url
p39
Vhttps://api.github.com/users/KirinDave/subscriptions
p40
sVavatar_url
p41
Vhttps://avatars.githubusercontent.com/u/36?
p42
sVrepos_url
p43
Vhttps://api.github.com/users/KirinDave/repos
p44
sVreceived_events_url
p45
Vhttps://api.github.com/users/KirinDave/received_events
p46
sVgravatar_id
p47
Vd4fabd6c08ac228a3ff846d9d0d1580e
p48
sVstarred_url
p49
Vhttps://api.github.com/users/KirinDave/starred{/owner}{/repo}
p50
sVsite_admin
p51
I00
sVlogin
p52
VKirinDave
p53
sVtype
p54
VUser
p55
sVid
p56
I36
sVfollowers_url
p57
Vhttps://api.github.com/users/KirinDave/followers
p58
ssVstatuses_url
p59
Vhttps://api.github.com/repos/KirinDave/clj-mixpanel/statuses/{sha}
p60
sVid
p61
I15885925
sVkeys_url
p62
Vhttps://api.github.com/repos/KirinDave/clj-mixpanel/keys{/key_id}
p63
sVdescription
p64
VClojure interface for sending events to Mixpanel
p65
sVsubscribers_count
p66
I1
sVtags_url
p67
Vhttps://api.github.com/repos/KirinDave/clj-mixpanel/tags
p68
sVnetwork_count
p69
I3
sVdownloads_url
p70
Vhttps://api.github.com/repos/KirinDave/clj-mixpanel/downloads
p71
sVassignees_url
p72
Vhttps://api.github.com/repos/KirinDave/clj-mixpanel/assignees{/user}
p73
sVcontents_url
p74
Vhttps://api.github.com/repos/KirinDave/clj-mixpanel/contents/{+path}
p75
sVgit_refs_url
p76
Vhttps://api.github.com/repos/KirinDave/clj-mixpanel/git/refs{/sha}
p77
sVopen_issues_count
p78
I0
sVsource
p79
(dp80
Vissues_url
p81
Vhttps://api.github.com/repos/pingles/clj-mixpanel/issues{/number}
p82
sVstargazers_count
p83
I4
sVforks_url
p84
Vhttps://api.github.com/repos/pingles/clj-mixpanel/forks
p85
sVmirror_url
p86
NsVsubscription_url
p87
Vhttps://api.github.com/repos/pingles/clj-mixpanel/subscription
p88
sVnotifications_url
p89
Vhttps://api.github.com/repos/pingles/clj-mixpanel/notifications{?since,all,participating}
p90
sVcollaborators_url
p91
Vhttps://api.github.com/repos/pingles/clj-mixpanel/collaborators{/collaborator}
p92
sVupdated_at
p93
V2014-03-03T11:48:33Z
p94
sVprivate
p95
I00
sVpulls_url
p96
Vhttps://api.github.com/repos/pingles/clj-mixpanel/pulls{/number}
p97
sVissue_comment_url
p98
Vhttps://api.github.com/repos/pingles/clj-mixpanel/issues/comments/{number}
p99
sVlabels_url
p100
Vhttps://api.github.com/repos/pingles/clj-mixpanel/labels{/name}
p101
sVhas_wiki
p102
I01
sVfull_name
p103
Vpingles/clj-mixpanel
p104
sVowner
p105
(dp106
Vfollowing_url
p107
Vhttps://api.github.com/users/pingles/following{/other_user}
p108
sVevents_url
p109
Vhttps://api.github.com/users/pingles/events{/privacy}
p110
sVorganizations_url
p111
Vhttps://api.github.com/users/pingles/orgs
p112
sVurl
p113
Vhttps://api.github.com/users/pingles
p114
sVgists_url
p115
Vhttps://api.github.com/users/pingles/gists{/gist_id}
p116
sVhtml_url
p117
Vhttps://github.com/pingles
p118
sVsubscriptions_url
p119
Vhttps://api.github.com/users/pingles/subscriptions
p120
sVavatar_url
p121
Vhttps://avatars.githubusercontent.com/u/1150?
p122
sVrepos_url
p123
Vhttps://api.github.com/users/pingles/repos
p124
sVreceived_events_url
p125
Vhttps://api.github.com/users/pingles/received_events
p126
sVgravatar_id
p127
V3aa708adb3ecf15173f7e6f2f9eefc6c
p128
sVstarred_url
p129
Vhttps://api.github.com/users/pingles/starred{/owner}{/repo}
p130
sVsite_admin
p131
I00
sVlogin
p132
Vpingles
p133
sVtype
p134
VUser
p135
sVid
p136
I1150
sVfollowers_url
p137
Vhttps://api.github.com/users/pingles/followers
p138
ssVstatuses_url
p139
Vhttps://api.github.com/repos/pingles/clj-mixpanel/statuses/{sha}
p140
sVid
p141
I4587972
sVkeys_url
p142
Vhttps://api.github.com/repos/pingles/clj-mixpanel/keys{/key_id}
p143
sVdescription
p144
VClojure interface for sending events to Mixpanel
p145
sVtags_url
p146
Vhttps://api.github.com/repos/pingles/clj-mixpanel/tags
p147
sVdownloads_url
p148
Vhttps://api.github.com/repos/pingles/clj-mixpanel/downloads
p149
sVassignees_url
p150
Vhttps://api.github.com/repos/pingles/clj-mixpanel/assignees{/user}
p151
sVcontents_url
p152
Vhttps://api.github.com/repos/pingles/clj-mixpanel/contents/{+path}
p153
sVgit_refs_url
p154
Vhttps://api.github.com/repos/pingles/clj-mixpanel/git/refs{/sha}
p155
sVopen_issues_count
p156
I2
sVclone_url
p157
Vhttps://github.com/pingles/clj-mixpanel.git
p158
sVwatchers_count
p159
I4
sVgit_tags_url
p160
Vhttps://api.github.com/repos/pingles/clj-mixpanel/git/tags{/sha}
p161
sVmilestones_url
p162
Vhttps://api.github.com/repos/pingles/clj-mixpanel/milestones{/number}
p163
sVlanguages_url
p164
Vhttps://api.github.com/repos/pingles/clj-mixpanel/languages
p165
sVsize
p166
I117
sVhomepage
p167
NsVfork
p168
I00
sVcommits_url
p169
Vhttps://api.github.com/repos/pingles/clj-mixpanel/commits{/sha}
p170
sVreleases_url
p171
Vhttps://api.github.com/repos/pingles/clj-mixpanel/releases{/id}
p172
sVissue_events_url
p173
Vhttps://api.github.com/repos/pingles/clj-mixpanel/issues/events{/number}
p174
sVarchive_url
p175
Vhttps://api.github.com/repos/pingles/clj-mixpanel/{archive_format}{/ref}
p176
sVcomments_url
p177
Vhttps://api.github.com/repos/pingles/clj-mixpanel/comments{/number}
p178
sVevents_url
p179
Vhttps://api.github.com/repos/pingles/clj-mixpanel/events
p180
sVcontributors_url
p181
Vhttps://api.github.com/repos/pingles/clj-mixpanel/contributors
p182
sVhtml_url
p183
Vhttps://github.com/pingles/clj-mixpanel
p184
sVforks
p185
I3
sVcompare_url
p186
Vhttps://api.github.com/repos/pingles/clj-mixpanel/compare/{base}...{head}
p187
sVopen_issues
p188
I2
sVgit_url
p189
Vgit://github.com/pingles/clj-mixpanel.git
p190
sVsvn_url
p191
Vhttps://github.com/pingles/clj-mixpanel
p192
sVmerges_url
p193
Vhttps://api.github.com/repos/pingles/clj-mixpanel/merges
p194
sVhas_issues
p195
I01
sVssh_url
p196
Vgit@github.com:pingles/clj-mixpanel.git
p197
sVblobs_url
p198
Vhttps://api.github.com/repos/pingles/clj-mixpanel/git/blobs{/sha}
p199
sVmaster_branch
p200
Vmaster
p201
sVgit_commits_url
p202
Vhttps://api.github.com/repos/pingles/clj-mixpanel/git/commits{/sha}
p203
sVhooks_url
p204
Vhttps://api.github.com/repos/pingles/clj-mixpanel/hooks
p205
sVhas_downloads
p206
I01
sVwatchers
p207
I4
sVname
p208
Vclj-mixpanel
p209
sVlanguage
p210
VClojure
p211
sVurl
p212
Vhttps://api.github.com/repos/pingles/clj-mixpanel
p213
sVcreated_at
p214
V2012-06-07T17:14:52Z
p215
sVpushed_at
p216
V2012-11-21T09:48:15Z
p217
sVforks_count
p218
I3
sVdefault_branch
p219
Vmaster
p220
sVteams_url
p221
Vhttps://api.github.com/repos/pingles/clj-mixpanel/teams
p222
sVtrees_url
p223
Vhttps://api.github.com/repos/pingles/clj-mixpanel/git/trees{/sha}
p224
sVbranches_url
p225
Vhttps://api.github.com/repos/pingles/clj-mixpanel/branches{/branch}
p226
sVsubscribers_url
p227
Vhttps://api.github.com/repos/pingles/clj-mixpanel/subscribers
p228
sVstargazers_url
p229
Vhttps://api.github.com/repos/pingles/clj-mixpanel/stargazers
p230
ssVclone_url
p231
Vhttps://github.com/KirinDave/clj-mixpanel.git
p232
sVwatchers_count
p233
I0
sVgit_tags_url
p234
Vhttps://api.github.com/repos/KirinDave/clj-mixpanel/git/tags{/sha}
p235
sVmilestones_url
p236
Vhttps://api.github.com/repos/KirinDave/clj-mixpanel/milestones{/number}
p237
sVlanguages_url
p238
Vhttps://api.github.com/repos/KirinDave/clj-mixpanel/languages
p239
sVsize
p240
I117
sVhomepage
p241
NsVfork
p242
I01
sVcommits_url
p243
Vhttps://api.github.com/repos/KirinDave/clj-mixpanel/commits{/sha}
p244
sVreleases_url
p245
Vhttps://api.github.com/repos/KirinDave/clj-mixpanel/releases{/id}
p246
sVissue_events_url
p247
Vhttps://api.github.com/repos/KirinDave/clj-mixpanel/issues/events{/number}
p248
sVparent
p249
(dp250
Vissues_url
p251
Vhttps://api.github.com/repos/pingles/clj-mixpanel/issues{/number}
p252
sVstargazers_count
p253
I4
sVforks_url
p254
Vhttps://api.github.com/repos/pingles/clj-mixpanel/forks
p255
sVmirror_url
p256
NsVsubscription_url
p257
Vhttps://api.github.com/repos/pingles/clj-mixpanel/subscription
p258
sVnotifications_url
p259
Vhttps://api.github.com/repos/pingles/clj-mixpanel/notifications{?since,all,participating}
p260
sVcollaborators_url
p261
Vhttps://api.github.com/repos/pingles/clj-mixpanel/collaborators{/collaborator}
p262
sVupdated_at
p263
V2014-03-03T11:48:33Z
p264
sVprivate
p265
I00
sVpulls_url
p266
Vhttps://api.github.com/repos/pingles/clj-mixpanel/pulls{/number}
p267
sVissue_comment_url
p268
Vhttps://api.github.com/repos/pingles/clj-mixpanel/issues/comments/{number}
p269
sVlabels_url
p270
Vhttps://api.github.com/repos/pingles/clj-mixpanel/labels{/name}
p271
sVhas_wiki
p272
I01
sVfull_name
p273
Vpingles/clj-mixpanel
p274
sVowner
p275
(dp276
Vfollowing_url
p277
Vhttps://api.github.com/users/pingles/following{/other_user}
p278
sVevents_url
p279
Vhttps://api.github.com/users/pingles/events{/privacy}
p280
sVorganizations_url
p281
Vhttps://api.github.com/users/pingles/orgs
p282
sVurl
p283
Vhttps://api.github.com/users/pingles
p284
sVgists_url
p285
Vhttps://api.github.com/users/pingles/gists{/gist_id}
p286
sVhtml_url
p287
Vhttps://github.com/pingles
p288
sVsubscriptions_url
p289
Vhttps://api.github.com/users/pingles/subscriptions
p290
sVavatar_url
p291
Vhttps://avatars.githubusercontent.com/u/1150?
p292
sVrepos_url
p293
Vhttps://api.github.com/users/pingles/repos
p294
sVreceived_events_url
p295
Vhttps://api.github.com/users/pingles/received_events
p296
sVgravatar_id
p297
V3aa708adb3ecf15173f7e6f2f9eefc6c
p298
sVstarred_url
p299
Vhttps://api.github.com/users/pingles/starred{/owner}{/repo}
p300
sVsite_admin
p301
I00
sVlogin
p302
Vpingles
p303
sVtype
p304
VUser
p305
sVid
p306
I1150
sVfollowers_url
p307
Vhttps://api.github.com/users/pingles/followers
p308
ssVstatuses_url
p309
Vhttps://api.github.com/repos/pingles/clj-mixpanel/statuses/{sha}
p310
sVid
p311
I4587972
sVkeys_url
p312
Vhttps://api.github.com/repos/pingles/clj-mixpanel/keys{/key_id}
p313
sVdescription
p314
VClojure interface for sending events to Mixpanel
p315
sVtags_url
p316
Vhttps://api.github.com/repos/pingles/clj-mixpanel/tags
p317
sVdownloads_url
p318
Vhttps://api.github.com/repos/pingles/clj-mixpanel/downloads
p319
sVassignees_url
p320
Vhttps://api.github.com/repos/pingles/clj-mixpanel/assignees{/user}
p321
sVcontents_url
p322
Vhttps://api.github.com/repos/pingles/clj-mixpanel/contents/{+path}
p323
sVgit_refs_url
p324
Vhttps://api.github.com/repos/pingles/clj-mixpanel/git/refs{/sha}
p325
sVopen_issues_count
p326
I2
sVclone_url
p327
Vhttps://github.com/pingles/clj-mixpanel.git
p328
sVwatchers_count
p329
I4
sVgit_tags_url
p330
Vhttps://api.github.com/repos/pingles/clj-mixpanel/git/tags{/sha}
p331
sVmilestones_url
p332
Vhttps://api.github.com/repos/pingles/clj-mixpanel/milestones{/number}
p333
sVlanguages_url
p334
Vhttps://api.github.com/repos/pingles/clj-mixpanel/languages
p335
sVsize
p336
I117
sVhomepage
p337
NsVfork
p338
I00
sVcommits_url
p339
Vhttps://api.github.com/repos/pingles/clj-mixpanel/commits{/sha}
p340
sVreleases_url
p341
Vhttps://api.github.com/repos/pingles/clj-mixpanel/releases{/id}
p342
sVissue_events_url
p343
Vhttps://api.github.com/repos/pingles/clj-mixpanel/issues/events{/number}
p344
sVarchive_url
p345
Vhttps://api.github.com/repos/pingles/clj-mixpanel/{archive_format}{/ref}
p346
sVcomments_url
p347
Vhttps://api.github.com/repos/pingles/clj-mixpanel/comments{/number}
p348
sVevents_url
p349
Vhttps://api.github.com/repos/pingles/clj-mixpanel/events
p350
sVcontributors_url
p351
Vhttps://api.github.com/repos/pingles/clj-mixpanel/contributors
p352
sVhtml_url
p353
Vhttps://github.com/pingles/clj-mixpanel
p354
sVforks
p355
I3
sVcompare_url
p356
Vhttps://api.github.com/repos/pingles/clj-mixpanel/compare/{base}...{head}
p357
sVopen_issues
p358
I2
sVgit_url
p359
Vgit://github.com/pingles/clj-mixpanel.git
p360
sVsvn_url
p361
Vhttps://github.com/pingles/clj-mixpanel
p362
sVmerges_url
p363
Vhttps://api.github.com/repos/pingles/clj-mixpanel/merges
p364
sVhas_issues
p365
I01
sVssh_url
p366
Vgit@github.com:pingles/clj-mixpanel.git
p367
sVblobs_url
p368
Vhttps://api.github.com/repos/pingles/clj-mixpanel/git/blobs{/sha}
p369
sVmaster_branch
p370
Vmaster
p371
sVgit_commits_url
p372
Vhttps://api.github.com/repos/pingles/clj-mixpanel/git/commits{/sha}
p373
sVhooks_url
p374
Vhttps://api.github.com/repos/pingles/clj-mixpanel/hooks
p375
sVhas_downloads
p376
I01
sVwatchers
p377
I4
sVname
p378
Vclj-mixpanel
p379
sVlanguage
p380
VClojure
p381
sVurl
p382
Vhttps://api.github.com/repos/pingles/clj-mixpanel
p383
sVcreated_at
p384
V2012-06-07T17:14:52Z
p385
sVpushed_at
p386
V2012-11-21T09:48:15Z
p387
sVforks_count
p388
I3
sVdefault_branch
p389
Vmaster
p390
sVteams_url
p391
Vhttps://api.github.com/repos/pingles/clj-mixpanel/teams
p392
sVtrees_url
p393
Vhttps://api.github.com/repos/pingles/clj-mixpanel/git/trees{/sha}
p394
sVbranches_url
p395
Vhttps://api.github.com/repos/pingles/clj-mixpanel/branches{/branch}
p396
sVsubscribers_url
p397
Vhttps://api.github.com/repos/pingles/clj-mixpanel/subscribers
p398
sVstargazers_url
p399
Vhttps://api.github.com/repos/pingles/clj-mixpanel/stargazers
p400
ssVarchive_url
p401
Vhttps://api.github.com/repos/KirinDave/clj-mixpanel/{archive_format}{/ref}
p402
sVcomments_url
p403
Vhttps://api.github.com/repos/KirinDave/clj-mixpanel/comments{/number}
p404
sVevents_url
p405
Vhttps://api.github.com/repos/KirinDave/clj-mixpanel/events
p406
sVcontributors_url
p407
Vhttps://api.github.com/repos/KirinDave/clj-mixpanel/contributors
p408
sVhtml_url
p409
Vhttps://github.com/KirinDave/clj-mixpanel
p410
sVforks
p411
I0
sVcompare_url
p412
Vhttps://api.github.com/repos/KirinDave/clj-mixpanel/compare/{base}...{head}
p413
sVopen_issues
p414
I0
sVgit_url
p415
Vgit://github.com/KirinDave/clj-mixpanel.git
p416
sVsvn_url
p417
Vhttps://github.com/KirinDave/clj-mixpanel
p418
sVmerges_url
p419
Vhttps://api.github.com/repos/KirinDave/clj-mixpanel/merges
p420
sVhas_issues
p421
I00
sVssh_url
p422
Vgit@github.com:KirinDave/clj-mixpanel.git
p423
sVblobs_url
p424
Vhttps://api.github.com/repos/KirinDave/clj-mixpanel/git/blobs{/sha}
p425
sVmaster_branch
p426
Vmaster
p427
sVgit_commits_url
p428
Vhttps://api.github.com/repos/KirinDave/clj-mixpanel/git/commits{/sha}
p429
sVhooks_url
p430
Vhttps://api.github.com/repos/KirinDave/clj-mixpanel/hooks
p431
sVhas_downloads
p432
I01
sVwatchers
p433
I0
sVname
p434
Vclj-mixpanel
p435
sVlanguage
p436
VClojure
p437
sVurl
p438
Vhttps://api.github.com/repos/KirinDave/clj-mixpanel
p439
sVcreated_at
p440
V2014-01-13T23:42:31Z
p441
sVpushed_at
p442
V2012-11-21T09:48:15Z
p443
sVforks_count
p444
I0
sVdefault_branch
p445
Vmaster
p446
sVteams_url
p447
Vhttps://api.github.com/repos/KirinDave/clj-mixpanel/teams
p448
sVtrees_url
p449
Vhttps://api.github.com/repos/KirinDave/clj-mixpanel/git/trees{/sha}
p450
sVbranches_url
p451
Vhttps://api.github.com/repos/KirinDave/clj-mixpanel/branches{/branch}
p452
sVsubscribers_url
p453
Vhttps://api.github.com/repos/KirinDave/clj-mixpanel/subscribers
p454
sVstargazers_url
p455
Vhttps://api.github.com/repos/KirinDave/clj-mixpanel/stargazers
p456
s.